ARM GAS  C:\Users\swaga\AppData\Local\Temp\ccUuDYv3.s 			page 1


   1              		.syntax unified
   2              		.cpu cortex-m3
   3              		.fpu softvfp
   4              		.eabi_attribute 20, 1
   5              		.eabi_attribute 21, 1
   6              		.eabi_attribute 23, 3
   7              		.eabi_attribute 24, 1
   8              		.eabi_attribute 25, 1
   9              		.eabi_attribute 26, 1
  10              		.eabi_attribute 30, 1
  11              		.eabi_attribute 34, 1
  12              		.eabi_attribute 18, 4
  13              		.thumb
  14              		.syntax unified
  15              		.file	"main.c"
  16              		.text
  17              	.Ltext0:
  18              		.cfi_sections	.debug_frame
  19              		.section	.text.lower_to_upper,"ax",%progbits
  20              		.align	2
  21              		.global	lower_to_upper
  22              		.thumb
  23              		.thumb_func
  24              		.type	lower_to_upper, %function
  25              	lower_to_upper:
  26              	.LFB64:
  27              		.file 1 "main.c"
   1:main.c        **** 
   2:main.c        **** #include "project.h"
   3:main.c        **** #include<stdio.h>
   4:main.c        **** char buffer[100];
   5:main.c        **** uint8_t buffer_index = 0;// software buffer
   6:main.c        **** uint8 bytes_received ;
   7:main.c        **** uint8  bytes_remaining;
   8:main.c        **** 
   9:main.c        **** 
  10:main.c        **** // upper to lower case conversion
  11:main.c        **** char* lower_to_upper(char* string){
  28              		.loc 1 11 0
  29              		.cfi_startproc
  30              		@ args = 0, pretend = 0, frame = 0
  31              		@ frame_needed = 0, uses_anonymous_args = 0
  32              		@ link register save eliminated.
  33              	.LVL0:
  34 0000 10B4     		push	{r4}
  35              		.cfi_def_cfa_offset 4
  36              		.cfi_offset 4, -4
  37              	.LVL1:
  38              	.LBB2:
  12:main.c        ****       for (int i= 0 ; ((string[i] !='\0'));i++)
  39              		.loc 1 12 0
  40 0002 0022     		movs	r2, #0
  41 0004 07E0     		b	.L2
  42              	.LVL2:
  43              	.L4:
  13:main.c        ****            { 
  14:main.c        ****         if (string[i]>=97 && string[i]<=122)
ARM GAS  C:\Users\swaga\AppData\Local\Temp\ccUuDYv3.s 			page 2


  44              		.loc 1 14 0
  45 0006 A3F16101 		sub	r1, r3, #97
  46 000a C9B2     		uxtb	r1, r1
  47 000c 1929     		cmp	r1, #25
  48 000e 01D8     		bhi	.L3
  15:main.c        ****                string[i] = (string[i] - ('a' - 'A')) ;        
  49              		.loc 1 15 0
  50 0010 203B     		subs	r3, r3, #32
  51 0012 2370     		strb	r3, [r4]
  52              	.L3:
  12:main.c        ****       for (int i= 0 ; ((string[i] !='\0'));i++)
  53              		.loc 1 12 0 discriminator 2
  54 0014 0132     		adds	r2, r2, #1
  55              	.LVL3:
  56              	.L2:
  12:main.c        ****       for (int i= 0 ; ((string[i] !='\0'));i++)
  57              		.loc 1 12 0 is_stmt 0 discriminator 1
  58 0016 8418     		adds	r4, r0, r2
  59 0018 835C     		ldrb	r3, [r0, r2]	@ zero_extendqisi2
  60 001a 002B     		cmp	r3, #0
  61 001c F3D1     		bne	.L4
  62              	.LBE2:
  16:main.c        ****         else{
  17:main.c        ****                 string[i] = string[i];
  18:main.c        ****           }
  19:main.c        ****         }
  20:main.c        ****     return string;
  21:main.c        ****     }
  63              		.loc 1 21 0 is_stmt 1
  64 001e 10BC     		pop	{r4}
  65              		.cfi_restore 4
  66              		.cfi_def_cfa_offset 0
  67 0020 7047     		bx	lr
  68              		.cfi_endproc
  69              	.LFE64:
  70              		.size	lower_to_upper, .-lower_to_upper
  71 0022 00BF     		.section	.text.main,"ax",%progbits
  72              		.align	2
  73              		.global	main
  74              		.thumb
  75              		.thumb_func
  76              		.type	main, %function
  77              	main:
  78              	.LFB65:
  22:main.c        **** 
  23:main.c        **** 
  24:main.c        **** int main(void)
  25:main.c        **** {
  79              		.loc 1 25 0
  80              		.cfi_startproc
  81              		@ args = 0, pretend = 0, frame = 0
  82              		@ frame_needed = 0, uses_anonymous_args = 0
  83 0000 10B5     		push	{r4, lr}
  84              		.cfi_def_cfa_offset 8
  85              		.cfi_offset 4, -8
  86              		.cfi_offset 14, -4
  26:main.c        ****     CyGlobalIntEnable; /* Enable global interrupts. */
ARM GAS  C:\Users\swaga\AppData\Local\Temp\ccUuDYv3.s 			page 3


  87              		.loc 1 26 0
  88              		.syntax unified
  89              	@ 26 "main.c" 1
  90 0002 62B6     		CPSIE   i
  91              	@ 0 "" 2
  27:main.c        **** 
  28:main.c        ****     UART_Start();
  92              		.loc 1 28 0
  93              		.thumb
  94              		.syntax unified
  95 0004 FFF7FEFF 		bl	UART_Start
  96              	.LVL4:
  97              	.L15:
  29:main.c        ****     
  30:main.c        ****     for(;;){
  31:main.c        ****         // data receive pipeline
  32:main.c        ****         bytes_received =bytes_remaining = UART_GetRxBufferSize(); // number of bytes received
  98              		.loc 1 32 0
  99 0008 FFF7FEFF 		bl	UART_GetRxBufferSize
 100              	.LVL5:
 101 000c 224B     		ldr	r3, .L17
 102 000e 1870     		strb	r0, [r3]
 103 0010 224B     		ldr	r3, .L17+4
 104 0012 1870     		strb	r0, [r3]
  33:main.c        ****         while ((buffer_index <= bytes_received) && (bytes_remaining !=0)){
 105              		.loc 1 33 0
 106 0014 15E0     		b	.L7
 107              	.L11:
  34:main.c        ****             buffer[buffer_index] = UART_GetByte(); 
 108              		.loc 1 34 0
 109 0016 FFF7FEFF 		bl	UART_GetByte
 110              	.LVL6:
 111 001a 214B     		ldr	r3, .L17+8
 112 001c 1855     		strb	r0, [r3, r4]
  35:main.c        ****             while (buffer[buffer_index] == '\0')  // make sure the data is received and copied to t
 113              		.loc 1 35 0
 114 001e 03E0     		b	.L8
 115              	.L9:
  36:main.c        ****                 buffer[buffer_index] = UART_GetByte(); // or else try unil the data is copied to bu
 116              		.loc 1 36 0
 117 0020 FFF7FEFF 		bl	UART_GetByte
 118              	.LVL7:
 119 0024 1E4B     		ldr	r3, .L17+8
 120 0026 1855     		strb	r0, [r3, r4]
 121              	.L8:
  35:main.c        ****             while (buffer[buffer_index] == '\0')  // make sure the data is received and copied to t
 122              		.loc 1 35 0
 123 0028 1E4B     		ldr	r3, .L17+12
 124 002a 1C78     		ldrb	r4, [r3]	@ zero_extendqisi2
 125 002c 1C4B     		ldr	r3, .L17+8
 126 002e 1B5D     		ldrb	r3, [r3, r4]	@ zero_extendqisi2
 127 0030 002B     		cmp	r3, #0
 128 0032 F5D0     		beq	.L9
  37:main.c        ****             buffer_index +=1;
 129              		.loc 1 37 0
 130 0034 0134     		adds	r4, r4, #1
 131 0036 1B4B     		ldr	r3, .L17+12
ARM GAS  C:\Users\swaga\AppData\Local\Temp\ccUuDYv3.s 			page 4


 132 0038 1C70     		strb	r4, [r3]
  38:main.c        ****             bytes_remaining = UART_GetRxBufferSize();  // check how much data is remaining in the U
 133              		.loc 1 38 0
 134 003a FFF7FEFF 		bl	UART_GetRxBufferSize
 135              	.LVL8:
 136 003e 164B     		ldr	r3, .L17
 137 0040 1870     		strb	r0, [r3]
 138              	.L7:
  33:main.c        ****             buffer[buffer_index] = UART_GetByte(); 
 139              		.loc 1 33 0
 140 0042 184B     		ldr	r3, .L17+12
 141 0044 1C78     		ldrb	r4, [r3]	@ zero_extendqisi2
 142 0046 154B     		ldr	r3, .L17+4
 143 0048 1B78     		ldrb	r3, [r3]	@ zero_extendqisi2
 144 004a 9C42     		cmp	r4, r3
 145 004c 03D8     		bhi	.L10
  33:main.c        ****             buffer[buffer_index] = UART_GetByte(); 
 146              		.loc 1 33 0 is_stmt 0 discriminator 1
 147 004e 124A     		ldr	r2, .L17
 148 0050 1278     		ldrb	r2, [r2]	@ zero_extendqisi2
 149 0052 002A     		cmp	r2, #0
 150 0054 DFD1     		bne	.L11
 151              	.L10:
  39:main.c        ****             
  40:main.c        ****             }
  41:main.c        ****         // data transfer only when data received
  42:main.c        ****         if (bytes_received != 0){
 152              		.loc 1 42 0 is_stmt 1
 153 0056 DBB1     		cbz	r3, .L12
  43:main.c        ****             UART_PutChar('\n');
 154              		.loc 1 43 0
 155 0058 0A20     		movs	r0, #10
 156 005a FFF7FEFF 		bl	UART_PutChar
 157              	.LVL9:
  44:main.c        ****             UART_PutString(buffer);
 158              		.loc 1 44 0
 159 005e 104C     		ldr	r4, .L17+8
 160 0060 2046     		mov	r0, r4
 161 0062 FFF7FEFF 		bl	UART_PutString
 162              	.LVL10:
  45:main.c        ****             UART_PutChar('\n');
 163              		.loc 1 45 0
 164 0066 0A20     		movs	r0, #10
 165 0068 FFF7FEFF 		bl	UART_PutChar
 166              	.LVL11:
  46:main.c        ****             //sprintf(buffer, "\n");
  47:main.c        ****             UART_PutString(lower_to_upper(buffer));
 167              		.loc 1 47 0
 168 006c 2046     		mov	r0, r4
 169 006e FFF7FEFF 		bl	lower_to_upper
 170              	.LVL12:
 171 0072 FFF7FEFF 		bl	UART_PutString
 172              	.LVL13:
 173              	.LBB3:
  48:main.c        ****             // RESETING/Emptying buffer to null after transmission of data
  49:main.c        ****             for(int i = 0;i<buffer_index;i++){
 174              		.loc 1 49 0
ARM GAS  C:\Users\swaga\AppData\Local\Temp\ccUuDYv3.s 			page 5


 175 0076 0023     		movs	r3, #0
 176 0078 03E0     		b	.L13
 177              	.LVL14:
 178              	.L14:
  50:main.c        ****                 buffer[i] ='\0';}
 179              		.loc 1 50 0 discriminator 3
 180 007a 0021     		movs	r1, #0
 181 007c 084A     		ldr	r2, .L17+8
 182 007e D154     		strb	r1, [r2, r3]
  49:main.c        ****                 buffer[i] ='\0';}
 183              		.loc 1 49 0 discriminator 3
 184 0080 0133     		adds	r3, r3, #1
 185              	.LVL15:
 186              	.L13:
  49:main.c        ****                 buffer[i] ='\0';}
 187              		.loc 1 49 0 is_stmt 0 discriminator 1
 188 0082 084A     		ldr	r2, .L17+12
 189 0084 1278     		ldrb	r2, [r2]	@ zero_extendqisi2
 190 0086 9342     		cmp	r3, r2
 191 0088 F7DB     		blt	.L14
 192              	.LBE3:
  51:main.c        ****                 //Reseting buffer index to 0
  52:main.c        ****                 buffer_index = 0;
 193              		.loc 1 52 0 is_stmt 1
 194 008a 0022     		movs	r2, #0
 195 008c 054B     		ldr	r3, .L17+12
 196              	.LVL16:
 197 008e 1A70     		strb	r2, [r3]
 198              	.L12:
  53:main.c        ****         
  54:main.c        ****             }  
  55:main.c        ****         //when no data received do something else
  56:main.c        ****         CyDelay(10);
 199              		.loc 1 56 0
 200 0090 0A20     		movs	r0, #10
 201 0092 FFF7FEFF 		bl	CyDelay
 202              	.LVL17:
  57:main.c        ****        }
 203              		.loc 1 57 0
 204 0096 B7E7     		b	.L15
 205              	.L18:
 206              		.align	2
 207              	.L17:
 208 0098 00000000 		.word	bytes_remaining
 209 009c 00000000 		.word	bytes_received
 210 00a0 00000000 		.word	buffer
 211 00a4 00000000 		.word	.LANCHOR0
 212              		.cfi_endproc
 213              	.LFE65:
 214              		.size	main, .-main
 215              		.comm	bytes_remaining,1,1
 216              		.comm	bytes_received,1,1
 217              		.global	buffer_index
 218              		.comm	buffer,100,4
 219              		.bss
 220              		.set	.LANCHOR0,. + 0
 221              		.type	buffer_index, %object
ARM GAS  C:\Users\swaga\AppData\Local\Temp\ccUuDYv3.s 			page 6


 222              		.size	buffer_index, 1
 223              	buffer_index:
 224 0000 00       		.space	1
 225              		.text
 226              	.Letext0:
 227              		.file 2 "c:\\program files (x86)\\cypress\\psoc creator\\4.2\\psoc creator\\import\\gnu\\arm\\5.4.
 228              		.file 3 "c:\\program files (x86)\\cypress\\psoc creator\\4.2\\psoc creator\\import\\gnu\\arm\\5.4.
 229              		.file 4 "Generated_Source\\PSoC5/cytypes.h"
 230              		.file 5 "Generated_Source\\PSoC5/core_cm3.h"
 231              		.file 6 "Generated_Source\\PSoC5/UART.h"
 232              		.file 7 "Generated_Source\\PSoC5/CyLib.h"