ARM GAS  C:\Users\swaga\AppData\Local\Temp\ccmBoPEP.s 			page 1


   1              		.syntax unified
   2              		.cpu cortex-m3
   3              		.fpu softvfp
   4              		.eabi_attribute 20, 1
   5              		.eabi_attribute 21, 1
   6              		.eabi_attribute 23, 3
   7              		.eabi_attribute 24, 1
   8              		.eabi_attribute 25, 1
   9              		.eabi_attribute 26, 1
  10              		.eabi_attribute 30, 1
  11              		.eabi_attribute 34, 1
  12              		.eabi_attribute 18, 4
  13              		.thumb
  14              		.syntax unified
  15              		.file	"main.c"
  16              		.text
  17              	.Ltext0:
  18              		.cfi_sections	.debug_frame
  19              		.section	.text.ISR_UART_Rx,"ax",%progbits
  20              		.align	2
  21              		.global	ISR_UART_Rx
  22              		.thumb
  23              		.thumb_func
  24              		.type	ISR_UART_Rx, %function
  25              	ISR_UART_Rx:
  26              	.LFB64:
  27              		.file 1 "main.c"
   1:main.c        **** #include "project.h"
   2:main.c        **** #include<stdio.h>
   3:main.c        **** # define vdda 5.0
   4:main.c        **** # define ADC_COUNT 65536
   5:main.c        **** # define TX_BUFF_SIZE 256
   6:main.c        **** //char rx_buffer;          // software buffer
   7:main.c        **** uint8_t rx_buffer_flag = 0;
   8:main.c        **** uint16 tx_buffer[TX_BUFF_SIZE];
   9:main.c        **** 
  10:main.c        **** 
  11:main.c        **** // Interrupt function to be activcated ever time a Byte is received
  12:main.c        **** void ISR_UART_Rx(void){
  28              		.loc 1 12 0
  29              		.cfi_startproc
  30              		@ args = 0, pretend = 0, frame = 0
  31              		@ frame_needed = 0, uses_anonymous_args = 0
  32              		@ link register save eliminated.
  13:main.c        ****     //rx_buffer = UART_GetByte();
  14:main.c        ****     rx_buffer_flag = 1;
  33              		.loc 1 14 0
  34 0000 0122     		movs	r2, #1
  35 0002 014B     		ldr	r3, .L2
  36 0004 1A70     		strb	r2, [r3]
  37 0006 7047     		bx	lr
  38              	.L3:
  39              		.align	2
  40              	.L2:
  41 0008 00000000 		.word	.LANCHOR0
  42              		.cfi_endproc
  43              	.LFE64:
ARM GAS  C:\Users\swaga\AppData\Local\Temp\ccmBoPEP.s 			page 2


  44              		.size	ISR_UART_Rx, .-ISR_UART_Rx
  45              		.global	__aeabi_i2d
  46              		.global	__aeabi_dmul
  47              		.global	__aeabi_d2f
  48              		.global	__aeabi_f2d
  49              		.global	__aeabi_dcmplt
  50              		.global	__aeabi_dcmpge
  51              		.global	__aeabi_fcmplt
  52              		.global	__aeabi_fcmpge
  53              		.section	.text.main,"ax",%progbits
  54              		.align	2
  55              		.global	main
  56              		.thumb
  57              		.thumb_func
  58              		.type	main, %function
  59              	main:
  60              	.LFB65:
  15:main.c        ****     
  16:main.c        **** }
  17:main.c        **** /*void ADC_convers_done(){
  18:main.c        ****     ADC_DONE_ClearPending();
  19:main.c        ****     
  20:main.c        ****     ADC_StopConvert();
  21:main.c        **** }
  22:main.c        **** */
  23:main.c        **** int main(void)
  24:main.c        **** {
  61              		.loc 1 24 0
  62              		.cfi_startproc
  63              		@ args = 0, pretend = 0, frame = 0
  64              		@ frame_needed = 0, uses_anonymous_args = 0
  65 0000 F8B5     		push	{r3, r4, r5, r6, r7, lr}
  66              		.cfi_def_cfa_offset 24
  67              		.cfi_offset 3, -24
  68              		.cfi_offset 4, -20
  69              		.cfi_offset 5, -16
  70              		.cfi_offset 6, -12
  71              		.cfi_offset 7, -8
  72              		.cfi_offset 14, -4
  25:main.c        ****     CyGlobalIntEnable; /* Enable global interrupts. */
  73              		.loc 1 25 0
  74              		.syntax unified
  75              	@ 25 "main.c" 1
  76 0002 62B6     		CPSIE   i
  77              	@ 0 "" 2
  26:main.c        ****     UART_Start();
  78              		.loc 1 26 0
  79              		.thumb
  80              		.syntax unified
  81 0004 FFF7FEFF 		bl	UART_Start
  82              	.LVL0:
  27:main.c        ****     ADC_Start();
  83              		.loc 1 27 0
  84 0008 FFF7FEFF 		bl	ADC_Start
  85              	.LVL1:
  28:main.c        ****     ADC_StartConvert();
  86              		.loc 1 28 0
ARM GAS  C:\Users\swaga\AppData\Local\Temp\ccmBoPEP.s 			page 3


  87 000c FFF7FEFF 		bl	ADC_StartConvert
  88              	.LVL2:
  29:main.c        ****     uint16 adc_result;
  30:main.c        ****     float adc_to_vg;
  31:main.c        ****     uint8 adc_to_tx_buf_done = 0;
  32:main.c        ****     // Interrupt function to be activcated ever time a Byte is received
  33:main.c        ****     ISR_UART_Rx_StartEx(ISR_UART_Rx);
  89              		.loc 1 33 0
  90 0010 4D48     		ldr	r0, .L28+16
  91 0012 FFF7FEFF 		bl	ISR_UART_Rx_StartEx
  92              	.LVL3:
  31:main.c        ****     // Interrupt function to be activcated ever time a Byte is received
  93              		.loc 1 31 0
  94 0016 0027     		movs	r7, #0
  95              	.LVL4:
  96              	.L19:
  34:main.c        ****     //ADC_DONE_StartEx(ADC_convers_done);
  35:main.c        ****     for(;;)
  36:main.c        ****        { 
  37:main.c        ****         // transmit the data only when requested from outside (i.e. rx_buffer_flag is high)
  38:main.c        ****         if((rx_buffer_flag ==1)&& (adc_to_tx_buf_done ==1)){
  97              		.loc 1 38 0
  98 0018 4C4B     		ldr	r3, .L28+20
  99 001a 1B78     		ldrb	r3, [r3]	@ zero_extendqisi2
 100 001c 012B     		cmp	r3, #1
 101 001e 08D1     		bne	.L5
 102              		.loc 1 38 0 is_stmt 0 discriminator 1
 103 0020 3FB1     		cbz	r7, .L5
  39:main.c        ****   
  40:main.c        ****                 UART_PutArray(tx_buffer,TX_BUFF_SIZE * sizeof(uint16_t));//<-----------------------
 104              		.loc 1 40 0 is_stmt 1
 105 0022 4FF40071 		mov	r1, #512
 106 0026 4A48     		ldr	r0, .L28+24
 107 0028 FFF7FEFF 		bl	UART_PutArray
 108              	.LVL5:
  41:main.c        ****             
  42:main.c        ****                 adc_to_tx_buf_done = 0;
  43:main.c        ****                 rx_buffer_flag = 0;
 109              		.loc 1 43 0
 110 002c 0027     		movs	r7, #0
 111 002e 474B     		ldr	r3, .L28+20
 112 0030 1F70     		strb	r7, [r3]
 113              	.LVL6:
 114              	.L5:
  44:main.c        ****             }
  45:main.c        ****         
  46:main.c        ****         // load ADC readings to tx buffer when requested from outside (i.e. rx_buffer_flag is high)
  47:main.c        ****         if (rx_buffer_flag ==1){
 115              		.loc 1 47 0
 116 0032 464B     		ldr	r3, .L28+20
 117 0034 1B78     		ldrb	r3, [r3]	@ zero_extendqisi2
 118 0036 012B     		cmp	r3, #1
 119 0038 0ED1     		bne	.L7
 120 003a 09E0     		b	.L20
 121              	.LVL7:
 122              	.L8:
 123              	.LBB2:
ARM GAS  C:\Users\swaga\AppData\Local\Temp\ccmBoPEP.s 			page 4


  48:main.c        ****            for (int i =0; i<TX_BUFF_SIZE ; i++){
  49:main.c        ****               ADC_IsEndConversion(ADC_WAIT_FOR_RESULT);
 124              		.loc 1 49 0 discriminator 3
 125 003c 0020     		movs	r0, #0
 126 003e FFF7FEFF 		bl	ADC_IsEndConversion
 127              	.LVL8:
  50:main.c        ****               tx_buffer[i] = ADC_GetResult32(); 
 128              		.loc 1 50 0 discriminator 3
 129 0042 FFF7FEFF 		bl	ADC_GetResult32
 130              	.LVL9:
 131 0046 424B     		ldr	r3, .L28+24
 132 0048 23F81400 		strh	r0, [r3, r4, lsl #1]	@ movhi
  48:main.c        ****            for (int i =0; i<TX_BUFF_SIZE ; i++){
 133              		.loc 1 48 0 discriminator 3
 134 004c 0134     		adds	r4, r4, #1
 135              	.LVL10:
 136 004e 00E0     		b	.L6
 137              	.LVL11:
 138              	.L20:
 139              	.LBE2:
 140 0050 0024     		movs	r4, #0
 141              	.L6:
 142              	.LVL12:
 143              	.LBB3:
  48:main.c        ****            for (int i =0; i<TX_BUFF_SIZE ; i++){
 144              		.loc 1 48 0 is_stmt 0 discriminator 1
 145 0052 FF2C     		cmp	r4, #255
 146 0054 F2DD     		ble	.L8
 147              	.LBE3:
  51:main.c        ****            }
  52:main.c        ****            adc_to_tx_buf_done = 1;
 148              		.loc 1 52 0 is_stmt 1
 149 0056 0127     		movs	r7, #1
 150              	.LVL13:
 151              	.L7:
  53:main.c        ****         }
  54:main.c        ****         // normal operation ( read ADC data and light the appropriate LED)
  55:main.c        ****         ADC_StartConvert();
 152              		.loc 1 55 0
 153 0058 FFF7FEFF 		bl	ADC_StartConvert
 154              	.LVL14:
  56:main.c        ****         ADC_IsEndConversion(ADC_WAIT_FOR_RESULT);
 155              		.loc 1 56 0
 156 005c 0020     		movs	r0, #0
 157 005e FFF7FEFF 		bl	ADC_IsEndConversion
 158              	.LVL15:
  57:main.c        ****         adc_result = ADC_GetResult32();
 159              		.loc 1 57 0
 160 0062 FFF7FEFF 		bl	ADC_GetResult32
 161              	.LVL16:
  58:main.c        ****         //CyDelay(1);
  59:main.c        ****         adc_to_vg = (vdda/ADC_COUNT) * adc_result ;
 162              		.loc 1 59 0
 163 0066 80B2     		uxth	r0, r0
 164 0068 FFF7FEFF 		bl	__aeabi_i2d
 165              	.LVL17:
 166 006c 0022     		movs	r2, #0
ARM GAS  C:\Users\swaga\AppData\Local\Temp\ccmBoPEP.s 			page 5


 167 006e 394B     		ldr	r3, .L28+28
 168 0070 FFF7FEFF 		bl	__aeabi_dmul
 169              	.LVL18:
 170 0074 FFF7FEFF 		bl	__aeabi_d2f
 171              	.LVL19:
 172 0078 0646     		mov	r6, r0
 173              	.LVL20:
  60:main.c        ****         
  61:main.c        ****         if (adc_to_vg < (0.088*vdda)){  // flash green LED if adc reads less than 8.8% of vdda 
 174              		.loc 1 61 0
 175 007a FFF7FEFF 		bl	__aeabi_f2d
 176              	.LVL21:
 177 007e 0446     		mov	r4, r0
 178 0080 0D46     		mov	r5, r1
 179 0082 2DA3     		adr	r3, .L28
 180 0084 D3E90023 		ldrd	r2, [r3]
 181 0088 FFF7FEFF 		bl	__aeabi_dcmplt
 182              	.LVL22:
 183 008c 98B1     		cbz	r0, .L9
  62:main.c        ****             led_green_Write(1);
 184              		.loc 1 62 0
 185 008e 0120     		movs	r0, #1
 186 0090 FFF7FEFF 		bl	led_green_Write
 187              	.LVL23:
  63:main.c        ****             CyDelay(1000);
 188              		.loc 1 63 0
 189 0094 4FF47A70 		mov	r0, #1000
 190 0098 FFF7FEFF 		bl	CyDelay
 191              	.LVL24:
  64:main.c        ****             led_green_Write(0);
 192              		.loc 1 64 0
 193 009c 0020     		movs	r0, #0
 194 009e FFF7FEFF 		bl	led_green_Write
 195              	.LVL25:
  65:main.c        ****             CyDelay(1000);
 196              		.loc 1 65 0
 197 00a2 4FF47A70 		mov	r0, #1000
 198 00a6 FFF7FEFF 		bl	CyDelay
 199              	.LVL26:
  66:main.c        ****             led_red_Write(0);
 200              		.loc 1 66 0
 201 00aa 0020     		movs	r0, #0
 202 00ac FFF7FEFF 		bl	led_red_Write
 203              	.LVL27:
  67:main.c        ****             led_yellow_Write(0);
 204              		.loc 1 67 0
 205 00b0 0020     		movs	r0, #0
 206 00b2 FFF7FEFF 		bl	led_yellow_Write
 207              	.LVL28:
 208              	.L9:
  68:main.c        ****         }
  69:main.c        ****         if ((adc_to_vg >= (0.088*vdda)) && (adc_to_vg < (0.5*vdda))){
 209              		.loc 1 69 0
 210 00b6 20A3     		adr	r3, .L28
 211 00b8 D3E90023 		ldrd	r2, [r3]
 212 00bc 2046     		mov	r0, r4
 213 00be 2946     		mov	r1, r5
ARM GAS  C:\Users\swaga\AppData\Local\Temp\ccmBoPEP.s 			page 6


 214 00c0 FFF7FEFF 		bl	__aeabi_dcmpge
 215              	.LVL29:
 216 00c4 68B1     		cbz	r0, .L11
 217              		.loc 1 69 0 is_stmt 0 discriminator 1
 218 00c6 2449     		ldr	r1, .L28+32
 219 00c8 3046     		mov	r0, r6
 220 00ca FFF7FEFF 		bl	__aeabi_fcmplt
 221              	.LVL30:
 222 00ce 40B1     		cbz	r0, .L11
  70:main.c        ****             led_green_Write(1);
 223              		.loc 1 70 0 is_stmt 1
 224 00d0 0120     		movs	r0, #1
 225 00d2 FFF7FEFF 		bl	led_green_Write
 226              	.LVL31:
  71:main.c        ****             led_red_Write(0);
 227              		.loc 1 71 0
 228 00d6 0020     		movs	r0, #0
 229 00d8 FFF7FEFF 		bl	led_red_Write
 230              	.LVL32:
  72:main.c        ****             led_yellow_Write(0);
 231              		.loc 1 72 0
 232 00dc 0020     		movs	r0, #0
 233 00de FFF7FEFF 		bl	led_yellow_Write
 234              	.LVL33:
 235              	.L11:
  73:main.c        ****         }
  74:main.c        ****         if ((adc_to_vg >= (0.5*vdda)) && (adc_to_vg < (0.911*vdda))){
 236              		.loc 1 74 0
 237 00e2 1D49     		ldr	r1, .L28+32
 238 00e4 3046     		mov	r0, r6
 239 00e6 FFF7FEFF 		bl	__aeabi_fcmpge
 240              	.LVL34:
 241 00ea 80B1     		cbz	r0, .L14
 242              		.loc 1 74 0 is_stmt 0 discriminator 1
 243 00ec 14A3     		adr	r3, .L28+8
 244 00ee D3E90023 		ldrd	r2, [r3]
 245 00f2 2046     		mov	r0, r4
 246 00f4 2946     		mov	r1, r5
 247 00f6 FFF7FEFF 		bl	__aeabi_dcmplt
 248              	.LVL35:
 249 00fa 40B1     		cbz	r0, .L14
  75:main.c        ****             led_green_Write(0);
 250              		.loc 1 75 0 is_stmt 1
 251 00fc 0020     		movs	r0, #0
 252 00fe FFF7FEFF 		bl	led_green_Write
 253              	.LVL36:
  76:main.c        ****             led_red_Write(0);
 254              		.loc 1 76 0
 255 0102 0020     		movs	r0, #0
 256 0104 FFF7FEFF 		bl	led_red_Write
 257              	.LVL37:
  77:main.c        ****             led_yellow_Write(1);
 258              		.loc 1 77 0
 259 0108 0120     		movs	r0, #1
 260 010a FFF7FEFF 		bl	led_yellow_Write
 261              	.LVL38:
 262              	.L14:
ARM GAS  C:\Users\swaga\AppData\Local\Temp\ccmBoPEP.s 			page 7


  78:main.c        ****         }
  79:main.c        ****         if (adc_to_vg >= (0.911*vdda)){
 263              		.loc 1 79 0
 264 010e 0CA3     		adr	r3, .L28+8
 265 0110 D3E90023 		ldrd	r2, [r3]
 266 0114 2046     		mov	r0, r4
 267 0116 2946     		mov	r1, r5
 268 0118 FFF7FEFF 		bl	__aeabi_dcmpge
 269              	.LVL39:
 270 011c 40B1     		cbz	r0, .L17
  80:main.c        ****             led_green_Write(0);
 271              		.loc 1 80 0
 272 011e 0020     		movs	r0, #0
 273 0120 FFF7FEFF 		bl	led_green_Write
 274              	.LVL40:
  81:main.c        ****             led_red_Write(1);
 275              		.loc 1 81 0
 276 0124 0120     		movs	r0, #1
 277 0126 FFF7FEFF 		bl	led_red_Write
 278              	.LVL41:
  82:main.c        ****             led_yellow_Write(0);
 279              		.loc 1 82 0
 280 012a 0020     		movs	r0, #0
 281 012c FFF7FEFF 		bl	led_yellow_Write
 282              	.LVL42:
 283              	.L17:
  83:main.c        ****         }
  84:main.c        ****         CyDelay(1);
 284              		.loc 1 84 0
 285 0130 0120     		movs	r0, #1
 286 0132 FFF7FEFF 		bl	CyDelay
 287              	.LVL43:
  85:main.c        ****        }
 288              		.loc 1 85 0
 289 0136 6FE7     		b	.L19
 290              	.L29:
 291              		.align	3
 292              	.L28:
 293 0138 285C8FC2 		.word	-1030792152
 294 013c F528DC3F 		.word	1071393013
 295 0140 B81E85EB 		.word	-343597384
 296 0144 51381240 		.word	1074935889
 297 0148 00000000 		.word	ISR_UART_Rx
 298 014c 00000000 		.word	.LANCHOR0
 299 0150 00000000 		.word	tx_buffer
 300 0154 0000143F 		.word	1058275328
 301 0158 00002040 		.word	1075838976
 302              		.cfi_endproc
 303              	.LFE65:
 304              		.size	main, .-main
 305              		.comm	tx_buffer,512,4
 306              		.global	rx_buffer_flag
 307              		.bss
 308              		.set	.LANCHOR0,. + 0
 309              		.type	rx_buffer_flag, %object
 310              		.size	rx_buffer_flag, 1
 311              	rx_buffer_flag:
ARM GAS  C:\Users\swaga\AppData\Local\Temp\ccmBoPEP.s 			page 8


 312 0000 00       		.space	1
 313              		.text
 314              	.Letext0:
 315              		.file 2 "c:\\program files (x86)\\cypress\\psoc creator\\4.2\\psoc creator\\import\\gnu\\arm\\5.4.
 316              		.file 3 "c:\\program files (x86)\\cypress\\psoc creator\\4.2\\psoc creator\\import\\gnu\\arm\\5.4.
 317              		.file 4 "Generated_Source\\PSoC5/cytypes.h"
 318              		.file 5 "Generated_Source\\PSoC5/core_cm3.h"
 319              		.file 6 "Generated_Source\\PSoC5/ADC.h"
 320              		.file 7 "Generated_Source\\PSoC5/UART.h"
 321              		.file 8 "Generated_Source\\PSoC5/ISR_UART_Rx.h"
 322              		.file 9 "Generated_Source\\PSoC5/led_green.h"
 323              		.file 10 "Generated_Source\\PSoC5/CyLib.h"
 324              		.file 11 "Generated_Source\\PSoC5/led_red.h"
 325              		.file 12 "Generated_Source\\PSoC5/led_yellow.h"