ARM GAS  C:\Users\swaga\AppData\Local\Temp\ccoynN0A.s 			page 1


   1              		.syntax unified
   2              		.cpu cortex-m3
   3              		.fpu softvfp
   4              		.eabi_attribute 20, 1
   5              		.eabi_attribute 21, 1
   6              		.eabi_attribute 23, 3
   7              		.eabi_attribute 24, 1
   8              		.eabi_attribute 25, 1
   9              		.eabi_attribute 26, 1
  10              		.eabi_attribute 30, 1
  11              		.eabi_attribute 34, 1
  12              		.eabi_attribute 18, 4
  13              		.thumb
  14              		.syntax unified
  15              		.file	"main.c"
  16              		.text
  17              	.Ltext0:
  18              		.cfi_sections	.debug_frame
  19              		.section	.text.decToBinary,"ax",%progbits
  20              		.align	2
  21              		.global	decToBinary
  22              		.thumb
  23              		.thumb_func
  24              		.type	decToBinary, %function
  25              	decToBinary:
  26              	.LFB64:
  27              		.file 1 "main.c"
   1:main.c        **** 
   2:main.c        **** #include "project.h"
   3:main.c        **** #include<stdio.h>
   4:main.c        **** CY_ISR_PROTO(isr_button_Handler);
   5:main.c        **** uint8 button_state;
   6:main.c        **** uint8 out_array[3];
   7:main.c        **** uint8 count = 0;
   8:main.c        **** char storage[10];
   9:main.c        **** 
  10:main.c        **** // function to convert decimal to binary 
  11:main.c        **** uint8* decToBinary(uint8 num) 
  12:main.c        **** { 
  28              		.loc 1 12 0
  29              		.cfi_startproc
  30              		@ args = 0, pretend = 0, frame = 0
  31              		@ frame_needed = 0, uses_anonymous_args = 0
  32              		@ link register save eliminated.
  33              	.LVL0:
  13:main.c        ****     // array to store binary number //not required in case of global variable
  14:main.c        ****     //uint8 binaryNum[3]; 
  15:main.c        ****     // counter for binary array 
  16:main.c        ****     uint8 i = 0;
  17:main.c        ****     if (num == 0){
  34              		.loc 1 17 0
  35 0000 0246     		mov	r2, r0
  36 0002 20B9     		cbnz	r0, .L2
  18:main.c        ****     out_array[0] = out_array[1] = out_array[2] = 0;
  37              		.loc 1 18 0
  38 0004 084B     		ldr	r3, .L5
  39 0006 0021     		movs	r1, #0
ARM GAS  C:\Users\swaga\AppData\Local\Temp\ccoynN0A.s 			page 2


  40 0008 9970     		strb	r1, [r3, #2]
  41 000a 5970     		strb	r1, [r3, #1]
  42 000c 1970     		strb	r1, [r3]
  43              	.L2:
  12:main.c        ****     // array to store binary number //not required in case of global variable
  44              		.loc 1 12 0
  45 000e 0023     		movs	r3, #0
  46 0010 06E0     		b	.L3
  47              	.LVL1:
  48              	.L4:
  19:main.c        ****     
  20:main.c        ****     }
  21:main.c        ****     while (num > 0) { 
  22:main.c        ****         // storing remainder in binary array 
  23:main.c        ****         out_array[i] = num % 2; 
  49              		.loc 1 23 0
  50 0012 02F00100 		and	r0, r2, #1
  51 0016 0449     		ldr	r1, .L5
  52 0018 C854     		strb	r0, [r1, r3]
  24:main.c        ****         num = num / 2; 
  53              		.loc 1 24 0
  54 001a 5208     		lsrs	r2, r2, #1
  55              	.LVL2:
  25:main.c        ****         i++;
  56              		.loc 1 25 0
  57 001c 0133     		adds	r3, r3, #1
  58              	.LVL3:
  59 001e DBB2     		uxtb	r3, r3
  60              	.LVL4:
  61              	.L3:
  21:main.c        ****         // storing remainder in binary array 
  62              		.loc 1 21 0
  63 0020 002A     		cmp	r2, #0
  64 0022 F6D1     		bne	.L4
  26:main.c        ****     } 
  27:main.c        ****     
  28:main.c        ****     return out_array;
  29:main.c        **** }
  65              		.loc 1 29 0
  66 0024 0048     		ldr	r0, .L5
  67 0026 7047     		bx	lr
  68              	.L6:
  69              		.align	2
  70              	.L5:
  71 0028 00000000 		.word	out_array
  72              		.cfi_endproc
  73              	.LFE64:
  74              		.size	decToBinary, .-decToBinary
  75              		.section	.text.counter,"ax",%progbits
  76              		.align	2
  77              		.global	counter
  78              		.thumb
  79              		.thumb_func
  80              		.type	counter, %function
  81              	counter:
  82              	.LFB65:
  30:main.c        **** // Function for counter
ARM GAS  C:\Users\swaga\AppData\Local\Temp\ccoynN0A.s 			page 3


  31:main.c        **** uint8 counter(uint8 size,uint8 variable)
  32:main.c        **** {
  83              		.loc 1 32 0
  84              		.cfi_startproc
  85              		@ args = 0, pretend = 0, frame = 0
  86              		@ frame_needed = 0, uses_anonymous_args = 0
  87              		@ link register save eliminated.
  88              	.LVL5:
  33:main.c        ****      if (variable == size-1)
  89              		.loc 1 33 0
  90 0000 0138     		subs	r0, r0, #1
  91              	.LVL6:
  92 0002 8142     		cmp	r1, r0
  93 0004 02D0     		beq	.L9
  34:main.c        ****         variable = 0;
  35:main.c        ****      else
  36:main.c        ****         variable +=1;
  94              		.loc 1 36 0
  95 0006 0131     		adds	r1, r1, #1
  96              	.LVL7:
  97 0008 C8B2     		uxtb	r0, r1
  98              	.LVL8:
  99 000a 7047     		bx	lr
 100              	.LVL9:
 101              	.L9:
  34:main.c        ****         variable = 0;
 102              		.loc 1 34 0
 103 000c 0020     		movs	r0, #0
 104              	.LVL10:
  37:main.c        ****     return variable;
  38:main.c        **** 
  39:main.c        **** }
 105              		.loc 1 39 0
 106 000e 7047     		bx	lr
 107              		.cfi_endproc
 108              	.LFE65:
 109              		.size	counter, .-counter
 110              		.section	.text.isr_button_Handler,"ax",%progbits
 111              		.align	2
 112              		.global	isr_button_Handler
 113              		.thumb
 114              		.thumb_func
 115              		.type	isr_button_Handler, %function
 116              	isr_button_Handler:
 117              	.LFB67:
  40:main.c        ****     
  41:main.c        **** int main(void)
  42:main.c        **** {
  43:main.c        ****     CyGlobalIntEnable; /* Enable global interrupts. */
  44:main.c        ****    
  45:main.c        ****       //  uint8 led_state;
  46:main.c        ****     UART_Start();
  47:main.c        ****     isr_button_StartEx(isr_button_Handler);
  48:main.c        ****     
  49:main.c        ****    // isr_button_StartEx(isr_button_Handler);
  50:main.c        ****     for(;;)
  51:main.c        ****     {   
ARM GAS  C:\Users\swaga\AppData\Local\Temp\ccoynN0A.s 			page 4


  52:main.c        ****         decToBinary(count);
  53:main.c        ****         led_red_Write(out_array[2]);
  54:main.c        ****         led_green_Write(out_array[1]);
  55:main.c        ****         led_blue_Write(out_array[0]);
  56:main.c        ****         sprintf(storage, "%d\n", (int)count);
  57:main.c        ****         UART_PutString(storage); 
  58:main.c        ****         UART_ClearTxBuffer();
  59:main.c        ****         //UART_Stop();
  60:main.c        ****         CyDelay(50);
  61:main.c        ****         
  62:main.c        ****         /*button_state= button_Read();
  63:main.c        ****         if (button_state==0){
  64:main.c        ****              led_Write(1);
  65:main.c        ****              UART_PutString("LED ON!!!\n");
  66:main.c        ****              }
  67:main.c        ****         
  68:main.c        ****         else{
  69:main.c        ****              led_Write(0);
  70:main.c        ****              UART_PutString("LED OFF!!!\n");
  71:main.c        ****     
  72:main.c        ****            }
  73:main.c        ****         CyDelay(1000);*/
  74:main.c        ****     }
  75:main.c        ****     
  76:main.c        **** }
  77:main.c        ****     CY_ISR(isr_button_Handler)
  78:main.c        ****     {   
 118              		.loc 1 78 0
 119              		.cfi_startproc
 120              		@ args = 0, pretend = 0, frame = 0
 121              		@ frame_needed = 0, uses_anonymous_args = 0
 122 0000 10B5     		push	{r4, lr}
 123              		.cfi_def_cfa_offset 8
 124              		.cfi_offset 4, -8
 125              		.cfi_offset 14, -4
  79:main.c        ****         //button_ClearInterrupt(); //no need in case of a debouncer
  80:main.c        ****         count=counter(7,count);
 126              		.loc 1 80 0
 127 0002 034C     		ldr	r4, .L12
 128 0004 2178     		ldrb	r1, [r4]	@ zero_extendqisi2
 129 0006 0720     		movs	r0, #7
 130 0008 FFF7FEFF 		bl	counter
 131              	.LVL11:
 132 000c 2070     		strb	r0, [r4]
 133 000e 10BD     		pop	{r4, pc}
 134              	.L13:
 135              		.align	2
 136              	.L12:
 137 0010 00000000 		.word	.LANCHOR0
 138              		.cfi_endproc
 139              	.LFE67:
 140              		.size	isr_button_Handler, .-isr_button_Handler
 141              		.section	.text.main,"ax",%progbits
 142              		.align	2
 143              		.global	main
 144              		.thumb
 145              		.thumb_func
ARM GAS  C:\Users\swaga\AppData\Local\Temp\ccoynN0A.s 			page 5


 146              		.type	main, %function
 147              	main:
 148              	.LFB66:
  42:main.c        ****     CyGlobalIntEnable; /* Enable global interrupts. */
 149              		.loc 1 42 0
 150              		.cfi_startproc
 151              		@ Volatile: function does not return.
 152              		@ args = 0, pretend = 0, frame = 0
 153              		@ frame_needed = 0, uses_anonymous_args = 0
 154 0000 08B5     		push	{r3, lr}
 155              		.cfi_def_cfa_offset 8
 156              		.cfi_offset 3, -8
 157              		.cfi_offset 14, -4
  43:main.c        ****    
 158              		.loc 1 43 0
 159              		.syntax unified
 160              	@ 43 "main.c" 1
 161 0002 62B6     		CPSIE   i
 162              	@ 0 "" 2
  46:main.c        ****     isr_button_StartEx(isr_button_Handler);
 163              		.loc 1 46 0
 164              		.thumb
 165              		.syntax unified
 166 0004 FFF7FEFF 		bl	UART_Start
 167              	.LVL12:
  47:main.c        ****     
 168              		.loc 1 47 0
 169 0008 0F48     		ldr	r0, .L17
 170 000a FFF7FEFF 		bl	isr_button_StartEx
 171              	.LVL13:
 172              	.L15:
  52:main.c        ****         led_red_Write(out_array[2]);
 173              		.loc 1 52 0 discriminator 1
 174 000e 0F4D     		ldr	r5, .L17+4
 175 0010 2878     		ldrb	r0, [r5]	@ zero_extendqisi2
 176 0012 FFF7FEFF 		bl	decToBinary
 177              	.LVL14:
  53:main.c        ****         led_green_Write(out_array[1]);
 178              		.loc 1 53 0 discriminator 1
 179 0016 0E4C     		ldr	r4, .L17+8
 180 0018 A078     		ldrb	r0, [r4, #2]	@ zero_extendqisi2
 181 001a FFF7FEFF 		bl	led_red_Write
 182              	.LVL15:
  54:main.c        ****         led_blue_Write(out_array[0]);
 183              		.loc 1 54 0 discriminator 1
 184 001e 6078     		ldrb	r0, [r4, #1]	@ zero_extendqisi2
 185 0020 FFF7FEFF 		bl	led_green_Write
 186              	.LVL16:
  55:main.c        ****         sprintf(storage, "%d\n", (int)count);
 187              		.loc 1 55 0 discriminator 1
 188 0024 2078     		ldrb	r0, [r4]	@ zero_extendqisi2
 189 0026 FFF7FEFF 		bl	led_blue_Write
 190              	.LVL17:
  56:main.c        ****         UART_PutString(storage); 
 191              		.loc 1 56 0 discriminator 1
 192 002a 0A4C     		ldr	r4, .L17+12
 193 002c 2A78     		ldrb	r2, [r5]	@ zero_extendqisi2
ARM GAS  C:\Users\swaga\AppData\Local\Temp\ccoynN0A.s 			page 6


 194 002e 0A49     		ldr	r1, .L17+16
 195 0030 2046     		mov	r0, r4
 196 0032 FFF7FEFF 		bl	sprintf
 197              	.LVL18:
  57:main.c        ****         UART_ClearTxBuffer();
 198              		.loc 1 57 0 discriminator 1
 199 0036 2046     		mov	r0, r4
 200 0038 FFF7FEFF 		bl	UART_PutString
 201              	.LVL19:
  58:main.c        ****         //UART_Stop();
 202              		.loc 1 58 0 discriminator 1
 203 003c FFF7FEFF 		bl	UART_ClearTxBuffer
 204              	.LVL20:
  60:main.c        ****         
 205              		.loc 1 60 0 discriminator 1
 206 0040 3220     		movs	r0, #50
 207 0042 FFF7FEFF 		bl	CyDelay
 208              	.LVL21:
 209 0046 E2E7     		b	.L15
 210              	.L18:
 211              		.align	2
 212              	.L17:
 213 0048 00000000 		.word	isr_button_Handler
 214 004c 00000000 		.word	.LANCHOR0
 215 0050 00000000 		.word	out_array
 216 0054 00000000 		.word	storage
 217 0058 00000000 		.word	.LC0
 218              		.cfi_endproc
 219              	.LFE66:
 220              		.size	main, .-main
 221              		.comm	storage,10,4
 222              		.global	count
 223              		.comm	out_array,3,4
 224              		.comm	button_state,1,1
 225              		.section	.rodata.str1.4,"aMS",%progbits,1
 226              		.align	2
 227              	.LC0:
 228 0000 25640A00 		.ascii	"%d\012\000"
 229              		.bss
 230              		.set	.LANCHOR0,. + 0
 231              		.type	count, %object
 232              		.size	count, 1
 233              	count:
 234 0000 00       		.space	1
 235              		.text
 236              	.Letext0:
 237              		.file 2 "c:\\program files (x86)\\cypress\\psoc creator\\4.2\\psoc creator\\import\\gnu\\arm\\5.4.
 238              		.file 3 "c:\\program files (x86)\\cypress\\psoc creator\\4.2\\psoc creator\\import\\gnu\\arm\\5.4.
 239              		.file 4 "Generated_Source\\PSoC5/cytypes.h"
 240              		.file 5 "Generated_Source\\PSoC5/core_cm3.h"
 241              		.file 6 "Generated_Source\\PSoC5/UART.h"
 242              		.file 7 "Generated_Source\\PSoC5/isr_button.h"
 243              		.file 8 "Generated_Source\\PSoC5/led_red.h"
 244              		.file 9 "Generated_Source\\PSoC5/led_green.h"
 245              		.file 10 "Generated_Source\\PSoC5/led_blue.h"
 246              		.file 11 "c:\\program files (x86)\\cypress\\psoc creator\\4.2\\psoc creator\\import\\gnu\\arm\\5.4
 247              		.file 12 "Generated_Source\\PSoC5/CyLib.h"
ARM GAS  C:\Users\swaga\AppData\Local\Temp\ccoynN0A.s 			page 7

