ARM GAS  C:\Users\swaga\AppData\Local\Temp\ccuQ7zRO.s 			page 1


   1              		.syntax unified
   2              		.cpu cortex-m3
   3              		.fpu softvfp
   4              		.eabi_attribute 20, 1
   5              		.eabi_attribute 21, 1
   6              		.eabi_attribute 23, 3
   7              		.eabi_attribute 24, 1
   8              		.eabi_attribute 25, 1
   9              		.eabi_attribute 26, 1
  10              		.eabi_attribute 30, 1
  11              		.eabi_attribute 34, 1
  12              		.eabi_attribute 18, 4
  13              		.thumb
  14              		.syntax unified
  15              		.file	"main.c"
  16              		.text
  17              	.Ltext0:
  18              		.cfi_sections	.debug_frame
  19              		.section	.text.ISR_UART_Rx,"ax",%progbits
  20              		.align	2
  21              		.global	ISR_UART_Rx
  22              		.thumb
  23              		.thumb_func
  24              		.type	ISR_UART_Rx, %function
  25              	ISR_UART_Rx:
  26              	.LFB64:
  27              		.file 1 "main.c"
   1:main.c        **** 
   2:main.c        **** #include "project.h"
   3:main.c        **** #include<stdio.h>
   4:main.c        **** char buffer[100];
   5:main.c        **** uint8_t buffer_index = 0;// software buffer
   6:main.c        **** 
   7:main.c        **** // Interrupt function to be activcated ever time a Byte is received
   8:main.c        **** void ISR_UART_Rx(void){
  28              		.loc 1 8 0
  29              		.cfi_startproc
  30              		@ args = 0, pretend = 0, frame = 0
  31              		@ frame_needed = 0, uses_anonymous_args = 0
  32 0000 10B5     		push	{r4, lr}
  33              		.cfi_def_cfa_offset 8
  34              		.cfi_offset 4, -8
  35              		.cfi_offset 14, -4
   9:main.c        ****     if (buffer_index < 100){
  36              		.loc 1 9 0
  37 0002 064B     		ldr	r3, .L4
  38 0004 1C78     		ldrb	r4, [r3]	@ zero_extendqisi2
  39 0006 632C     		cmp	r4, #99
  40 0008 07D8     		bhi	.L1
  10:main.c        ****     buffer[buffer_index] = UART_GetByte();
  41              		.loc 1 10 0
  42 000a FFF7FEFF 		bl	UART_GetByte
  43              	.LVL0:
  44 000e 044B     		ldr	r3, .L4+4
  45 0010 1855     		strb	r0, [r3, r4]
  11:main.c        ****     buffer_index++;
  46              		.loc 1 11 0
ARM GAS  C:\Users\swaga\AppData\Local\Temp\ccuQ7zRO.s 			page 2


  47 0012 024A     		ldr	r2, .L4
  48 0014 1378     		ldrb	r3, [r2]	@ zero_extendqisi2
  49 0016 0133     		adds	r3, r3, #1
  50 0018 1370     		strb	r3, [r2]
  51              	.L1:
  52 001a 10BD     		pop	{r4, pc}
  53              	.L5:
  54              		.align	2
  55              	.L4:
  56 001c 00000000 		.word	.LANCHOR0
  57 0020 00000000 		.word	buffer
  58              		.cfi_endproc
  59              	.LFE64:
  60              		.size	ISR_UART_Rx, .-ISR_UART_Rx
  61              		.section	.text.lower_to_upper,"ax",%progbits
  62              		.align	2
  63              		.global	lower_to_upper
  64              		.thumb
  65              		.thumb_func
  66              		.type	lower_to_upper, %function
  67              	lower_to_upper:
  68              	.LFB65:
  12:main.c        ****     }
  13:main.c        **** }
  14:main.c        **** 
  15:main.c        **** // upper to lower case conversion
  16:main.c        **** char* lower_to_upper(char* string,int current_index){
  69              		.loc 1 16 0
  70              		.cfi_startproc
  71              		@ args = 0, pretend = 0, frame = 0
  72              		@ frame_needed = 0, uses_anonymous_args = 0
  73              		@ link register save eliminated.
  74              	.LVL1:
  75 0000 30B4     		push	{r4, r5}
  76              		.cfi_def_cfa_offset 8
  77              		.cfi_offset 4, -8
  78              		.cfi_offset 5, -4
  79              	.LVL2:
  80              	.LBB2:
  17:main.c        ****       for (int i= 0 ; ((string[i] !='\0') && (i<= current_index));i++)
  81              		.loc 1 17 0
  82 0002 0023     		movs	r3, #0
  83 0004 07E0     		b	.L7
  84              	.LVL3:
  85              	.L10:
  18:main.c        ****            { 
  19:main.c        ****         if (string[i]>=97 && string[i]<=122)
  86              		.loc 1 19 0
  87 0006 A2F16104 		sub	r4, r2, #97
  88 000a E4B2     		uxtb	r4, r4
  89 000c 192C     		cmp	r4, #25
  90 000e 01D8     		bhi	.L8
  20:main.c        ****                string[i] = (string[i] - ('a' - 'A')) ;
  91              		.loc 1 20 0
  92 0010 203A     		subs	r2, r2, #32
  93 0012 2A70     		strb	r2, [r5]
  94              	.L8:
ARM GAS  C:\Users\swaga\AppData\Local\Temp\ccuQ7zRO.s 			page 3


  17:main.c        ****       for (int i= 0 ; ((string[i] !='\0') && (i<= current_index));i++)
  95              		.loc 1 17 0 discriminator 2
  96 0014 0133     		adds	r3, r3, #1
  97              	.LVL4:
  98              	.L7:
  17:main.c        ****       for (int i= 0 ; ((string[i] !='\0') && (i<= current_index));i++)
  99              		.loc 1 17 0 is_stmt 0 discriminator 1
 100 0016 C518     		adds	r5, r0, r3
 101 0018 C25C     		ldrb	r2, [r0, r3]	@ zero_extendqisi2
 102 001a 0AB1     		cbz	r2, .L9
  17:main.c        ****       for (int i= 0 ; ((string[i] !='\0') && (i<= current_index));i++)
 103              		.loc 1 17 0 discriminator 3
 104 001c 8B42     		cmp	r3, r1
 105 001e F2DD     		ble	.L10
 106              	.L9:
 107              	.LBE2:
  21:main.c        ****            
  22:main.c        ****         else{
  23:main.c        ****                 string[i] = string[i];
  24:main.c        ****         }
  25:main.c        ****         }
  26:main.c        ****     return string;
  27:main.c        ****     }
 108              		.loc 1 27 0 is_stmt 1
 109 0020 30BC     		pop	{r4, r5}
 110              		.cfi_restore 5
 111              		.cfi_restore 4
 112              		.cfi_def_cfa_offset 0
 113 0022 7047     		bx	lr
 114              		.cfi_endproc
 115              	.LFE65:
 116              		.size	lower_to_upper, .-lower_to_upper
 117              		.section	.text.main,"ax",%progbits
 118              		.align	2
 119              		.global	main
 120              		.thumb
 121              		.thumb_func
 122              		.type	main, %function
 123              	main:
 124              	.LFB66:
  28:main.c        **** 
  29:main.c        **** 
  30:main.c        **** int main(void)
  31:main.c        **** {
 125              		.loc 1 31 0
 126              		.cfi_startproc
 127              		@ args = 0, pretend = 0, frame = 0
 128              		@ frame_needed = 0, uses_anonymous_args = 0
 129 0000 10B5     		push	{r4, lr}
 130              		.cfi_def_cfa_offset 8
 131              		.cfi_offset 4, -8
 132              		.cfi_offset 14, -4
  32:main.c        ****     CyGlobalIntEnable; /* Enable global interrupts. */
 133              		.loc 1 32 0
 134              		.syntax unified
 135              	@ 32 "main.c" 1
 136 0002 62B6     		CPSIE   i
ARM GAS  C:\Users\swaga\AppData\Local\Temp\ccuQ7zRO.s 			page 4


 137              	@ 0 "" 2
  33:main.c        **** 
  34:main.c        ****     UART_Start();
 138              		.loc 1 34 0
 139              		.thumb
 140              		.syntax unified
 141 0004 FFF7FEFF 		bl	UART_Start
 142              	.LVL5:
  35:main.c        ****     
  36:main.c        ****     // Interrupt function to be activcated ever time a Byte is received
  37:main.c        ****     ISR_UART_Rx_StartEx(ISR_UART_Rx);
 143              		.loc 1 37 0
 144 0008 1848     		ldr	r0, .L21
 145 000a FFF7FEFF 		bl	ISR_UART_Rx_StartEx
 146              	.LVL6:
 147              	.L18:
  38:main.c        ****     
  39:main.c        ****     for(;;){ 
  40:main.c        ****         
  41:main.c        ****         // transmit the data only when data is received
  42:main.c        ****         if(buffer_index >0){
 148              		.loc 1 42 0
 149 000e 184B     		ldr	r3, .L21+4
 150 0010 1B78     		ldrb	r3, [r3]	@ zero_extendqisi2
 151 0012 33B9     		cbnz	r3, .L19
 152 0014 24E0     		b	.L14
 153              	.LVL7:
 154              	.L15:
 155              	.LBB3:
  43:main.c        ****             for(int i = 0;i<buffer_index;i++){
  44:main.c        ****                 UART_PutChar(buffer[i]);//<------------------------------------ original data
 156              		.loc 1 44 0 discriminator 3
 157 0016 174B     		ldr	r3, .L21+8
 158 0018 185D     		ldrb	r0, [r3, r4]	@ zero_extendqisi2
 159 001a FFF7FEFF 		bl	UART_PutChar
 160              	.LVL8:
  43:main.c        ****             for(int i = 0;i<buffer_index;i++){
 161              		.loc 1 43 0 discriminator 3
 162 001e 0134     		adds	r4, r4, #1
 163              	.LVL9:
 164 0020 00E0     		b	.L13
 165              	.LVL10:
 166              	.L19:
 167              	.LBE3:
 168 0022 0024     		movs	r4, #0
 169              	.L13:
 170              	.LVL11:
 171              	.LBB4:
  43:main.c        ****             for(int i = 0;i<buffer_index;i++){
 172              		.loc 1 43 0 is_stmt 0 discriminator 1
 173 0024 124B     		ldr	r3, .L21+4
 174 0026 1B78     		ldrb	r3, [r3]	@ zero_extendqisi2
 175 0028 9C42     		cmp	r4, r3
 176 002a F4DB     		blt	.L15
 177              	.LBE4:
  45:main.c        ****             }
  46:main.c        ****             
ARM GAS  C:\Users\swaga\AppData\Local\Temp\ccuQ7zRO.s 			page 5


  47:main.c        ****             UART_PutChar('\n');
 178              		.loc 1 47 0 is_stmt 1
 179 002c 0A20     		movs	r0, #10
 180 002e FFF7FEFF 		bl	UART_PutChar
 181              	.LVL12:
  48:main.c        ****             UART_PutString(lower_to_upper(buffer,buffer_index));//<-------- converted data
 182              		.loc 1 48 0
 183 0032 0F4B     		ldr	r3, .L21+4
 184 0034 1978     		ldrb	r1, [r3]	@ zero_extendqisi2
 185 0036 0F48     		ldr	r0, .L21+8
 186 0038 FFF7FEFF 		bl	lower_to_upper
 187              	.LVL13:
 188 003c FFF7FEFF 		bl	UART_PutString
 189              	.LVL14:
  49:main.c        ****             UART_PutChar('\n');
 190              		.loc 1 49 0
 191 0040 0A20     		movs	r0, #10
 192 0042 FFF7FEFF 		bl	UART_PutChar
 193              	.LVL15:
 194              	.LBB5:
  50:main.c        ****             // RESETING/Emptying buffer to null after transmission of data
  51:main.c        ****             for(int i = 0;i<buffer_index;i++){
 195              		.loc 1 51 0
 196 0046 0023     		movs	r3, #0
 197 0048 03E0     		b	.L16
 198              	.LVL16:
 199              	.L17:
  52:main.c        ****                 buffer[i] ='\0';}
 200              		.loc 1 52 0 discriminator 3
 201 004a 0021     		movs	r1, #0
 202 004c 094A     		ldr	r2, .L21+8
 203 004e D154     		strb	r1, [r2, r3]
  51:main.c        ****                 buffer[i] ='\0';}
 204              		.loc 1 51 0 discriminator 3
 205 0050 0133     		adds	r3, r3, #1
 206              	.LVL17:
 207              	.L16:
  51:main.c        ****                 buffer[i] ='\0';}
 208              		.loc 1 51 0 is_stmt 0 discriminator 1
 209 0052 074A     		ldr	r2, .L21+4
 210 0054 1278     		ldrb	r2, [r2]	@ zero_extendqisi2
 211 0056 9342     		cmp	r3, r2
 212 0058 F7DB     		blt	.L17
 213              	.LBE5:
  53:main.c        ****             //Reseting buffer index to 0
  54:main.c        ****             buffer_index = 0;
 214              		.loc 1 54 0 is_stmt 1
 215 005a 0022     		movs	r2, #0
 216 005c 044B     		ldr	r3, .L21+4
 217              	.LVL18:
 218 005e 1A70     		strb	r2, [r3]
 219              	.LVL19:
 220              	.L14:
  55:main.c        ****         }
  56:main.c        ****         //optional else block to transmit data after the delay when ever.. 
  57:main.c        ****                                                   // .. the buffer is empty 
  58:main.c        ****         else{
ARM GAS  C:\Users\swaga\AppData\Local\Temp\ccuQ7zRO.s 			page 6


  59:main.c        ****                //UART_PutString("No Data \n");
  60:main.c        ****             }
  61:main.c        ****         //some other process the processor can do when idle
  62:main.c        ****         CyDelay(1000);
 221              		.loc 1 62 0
 222 0060 4FF47A70 		mov	r0, #1000
 223 0064 FFF7FEFF 		bl	CyDelay
 224              	.LVL20:
  63:main.c        ****     }
 225              		.loc 1 63 0
 226 0068 D1E7     		b	.L18
 227              	.L22:
 228 006a 00BF     		.align	2
 229              	.L21:
 230 006c 00000000 		.word	ISR_UART_Rx
 231 0070 00000000 		.word	.LANCHOR0
 232 0074 00000000 		.word	buffer
 233              		.cfi_endproc
 234              	.LFE66:
 235              		.size	main, .-main
 236              		.global	buffer_index
 237              		.comm	buffer,100,4
 238              		.bss
 239              		.set	.LANCHOR0,. + 0
 240              		.type	buffer_index, %object
 241              		.size	buffer_index, 1
 242              	buffer_index:
 243 0000 00       		.space	1
 244              		.text
 245              	.Letext0:
 246              		.file 2 "c:\\program files (x86)\\cypress\\psoc creator\\4.2\\psoc creator\\import\\gnu\\arm\\5.4.
 247              		.file 3 "c:\\program files (x86)\\cypress\\psoc creator\\4.2\\psoc creator\\import\\gnu\\arm\\5.4.
 248              		.file 4 "Generated_Source\\PSoC5/core_cm3.h"
 249              		.file 5 "Generated_Source\\PSoC5/UART.h"
 250              		.file 6 "Generated_Source\\PSoC5/ISR_UART_Rx.h"
 251              		.file 7 "Generated_Source\\PSoC5/CyLib.h"