ARM GAS  C:\Users\swaga\AppData\Local\Temp\cc8Grb8t.s 			page 1


   1              		.syntax unified
   2              		.cpu cortex-m3
   3              		.fpu softvfp
   4              		.eabi_attribute 20, 1
   5              		.eabi_attribute 21, 1
   6              		.eabi_attribute 23, 3
   7              		.eabi_attribute 24, 1
   8              		.eabi_attribute 25, 1
   9              		.eabi_attribute 26, 1
  10              		.eabi_attribute 30, 1
  11              		.eabi_attribute 34, 1
  12              		.eabi_attribute 18, 4
  13              		.thumb
  14              		.syntax unified
  15              		.file	"main.c"
  16              		.text
  17              	.Ltext0:
  18              		.cfi_sections	.debug_frame
  19              		.section	.text.isr_Handler,"ax",%progbits
  20              		.align	2
  21              		.global	isr_Handler
  22              		.thumb
  23              		.thumb_func
  24              		.type	isr_Handler, %function
  25              	isr_Handler:
  26              	.LFB64:
  27              		.file 1 "main.c"
   1:main.c        **** 
   2:main.c        **** #include "project.h"
   3:main.c        **** CY_ISR_PROTO(isr_Handler);
   4:main.c        **** char buffer;
   5:main.c        **** //uint8 button_state;
   6:main.c        **** int main(void)
   7:main.c        **** {
   8:main.c        ****     CyGlobalIntEnable; /* Enable global interrupts. */
   9:main.c        **** 
  10:main.c        ****    
  11:main.c        ****       //  uint8 led_state;
  12:main.c        ****     UART_Start();
  13:main.c        ****     isr_StartEx(isr_Handler);
  14:main.c        ****     //UART_EnableRxInt();
  15:main.c        ****     //UART_SetRxInterruptMode(UART_RX_STS_FIFO_NOTEMPTY);
  16:main.c        ****     for(;;)
  17:main.c        ****     {   
  18:main.c        ****         
  19:main.c        ****         /*button_state= button_Read();
  20:main.c        ****         if (UART_GetChar()=='0'){
  21:main.c        ****              led_red_Write(1);
  22:main.c        ****              led_green_Write(0);
  23:main.c        ****              led_blue_Write(0);
  24:main.c        ****              UART_PutString("LED RED ON!!!\n");
  25:main.c        ****              }
  26:main.c        ****         
  27:main.c        ****         else if(UART_GetChar()=='1')
  28:main.c        ****            {
  29:main.c        ****              led_red_Write(0);
  30:main.c        ****              led_green_Write(1);
ARM GAS  C:\Users\swaga\AppData\Local\Temp\cc8Grb8t.s 			page 2


  31:main.c        ****              led_blue_Write(0);
  32:main.c        ****              UART_PutString("LED GREEN ON!!!\n");
  33:main.c        ****             }
  34:main.c        ****         else if(UART_GetChar()=='2')
  35:main.c        ****            {
  36:main.c        ****              led_red_Write(0);
  37:main.c        ****              led_green_Write(0);
  38:main.c        ****              led_blue_Write(1);
  39:main.c        ****              UART_PutString("LED BLUE ON!!!\n");*/
  40:main.c        ****             }
  41:main.c        ****         }
  42:main.c        ****        // CyDelay(1000);
  43:main.c        ****     
  44:main.c        ****     
  45:main.c        **** 
  46:main.c        ****     CY_ISR(isr_Handler) {  
  28              		.loc 1 46 0
  29              		.cfi_startproc
  30              		@ args = 0, pretend = 0, frame = 0
  31              		@ frame_needed = 0, uses_anonymous_args = 0
  32 0000 08B5     		push	{r3, lr}
  33              		.cfi_def_cfa_offset 8
  34              		.cfi_offset 3, -8
  35              		.cfi_offset 14, -4
  47:main.c        ****         buffer = UART_GetChar();
  36              		.loc 1 47 0
  37 0002 FFF7FEFF 		bl	UART_GetChar
  38              	.LVL0:
  39 0006 174B     		ldr	r3, .L6
  40 0008 1870     		strb	r0, [r3]
  48:main.c        ****         //rx_interrupt_ClearInterrupt();
  49:main.c        ****         if (buffer=='0'){
  41              		.loc 1 49 0
  42 000a 3028     		cmp	r0, #48
  43 000c 0CD1     		bne	.L2
  50:main.c        ****              led_red_Write(1);
  44              		.loc 1 50 0
  45 000e 0120     		movs	r0, #1
  46 0010 FFF7FEFF 		bl	led_red_Write
  47              	.LVL1:
  51:main.c        ****              led_green_Write(0);
  48              		.loc 1 51 0
  49 0014 0020     		movs	r0, #0
  50 0016 FFF7FEFF 		bl	led_green_Write
  51              	.LVL2:
  52:main.c        ****              led_blue_Write(0);
  52              		.loc 1 52 0
  53 001a 0020     		movs	r0, #0
  54 001c FFF7FEFF 		bl	led_blue_Write
  55              	.LVL3:
  53:main.c        ****              UART_PutString("LED RED ON!!!\n");
  56              		.loc 1 53 0
  57 0020 1148     		ldr	r0, .L6+4
  58 0022 FFF7FEFF 		bl	UART_PutString
  59              	.LVL4:
  60 0026 08BD     		pop	{r3, pc}
  61              	.L2:
ARM GAS  C:\Users\swaga\AppData\Local\Temp\cc8Grb8t.s 			page 3


  54:main.c        ****              }
  55:main.c        ****         
  56:main.c        ****         else if(buffer=='1')
  62              		.loc 1 56 0
  63 0028 3128     		cmp	r0, #49
  64 002a 0CD1     		bne	.L4
  57:main.c        ****            {
  58:main.c        ****              led_red_Write(0);
  65              		.loc 1 58 0
  66 002c 0020     		movs	r0, #0
  67 002e FFF7FEFF 		bl	led_red_Write
  68              	.LVL5:
  59:main.c        ****              led_green_Write(1);
  69              		.loc 1 59 0
  70 0032 0120     		movs	r0, #1
  71 0034 FFF7FEFF 		bl	led_green_Write
  72              	.LVL6:
  60:main.c        ****              led_blue_Write(0);
  73              		.loc 1 60 0
  74 0038 0020     		movs	r0, #0
  75 003a FFF7FEFF 		bl	led_blue_Write
  76              	.LVL7:
  61:main.c        ****              UART_PutString("LED GREEN ON!!!\n");
  77              		.loc 1 61 0
  78 003e 0B48     		ldr	r0, .L6+8
  79 0040 FFF7FEFF 		bl	UART_PutString
  80              	.LVL8:
  81 0044 08BD     		pop	{r3, pc}
  82              	.L4:
  62:main.c        ****             }
  63:main.c        ****         else if(buffer=='2')
  83              		.loc 1 63 0
  84 0046 3228     		cmp	r0, #50
  85 0048 0BD1     		bne	.L1
  64:main.c        ****            {
  65:main.c        ****              led_red_Write(0);
  86              		.loc 1 65 0
  87 004a 0020     		movs	r0, #0
  88 004c FFF7FEFF 		bl	led_red_Write
  89              	.LVL9:
  66:main.c        ****              led_green_Write(0);
  90              		.loc 1 66 0
  91 0050 0020     		movs	r0, #0
  92 0052 FFF7FEFF 		bl	led_green_Write
  93              	.LVL10:
  67:main.c        ****              led_blue_Write(1);
  94              		.loc 1 67 0
  95 0056 0120     		movs	r0, #1
  96 0058 FFF7FEFF 		bl	led_blue_Write
  97              	.LVL11:
  68:main.c        ****              UART_PutString("LED BLUE ON!!!\n");
  98              		.loc 1 68 0
  99 005c 0448     		ldr	r0, .L6+12
 100 005e FFF7FEFF 		bl	UART_PutString
 101              	.LVL12:
 102              	.L1:
 103 0062 08BD     		pop	{r3, pc}
ARM GAS  C:\Users\swaga\AppData\Local\Temp\cc8Grb8t.s 			page 4


 104              	.L7:
 105              		.align	2
 106              	.L6:
 107 0064 00000000 		.word	buffer
 108 0068 00000000 		.word	.LC0
 109 006c 10000000 		.word	.LC1
 110 0070 24000000 		.word	.LC2
 111              		.cfi_endproc
 112              	.LFE64:
 113              		.size	isr_Handler, .-isr_Handler
 114              		.section	.text.main,"ax",%progbits
 115              		.align	2
 116              		.global	main
 117              		.thumb
 118              		.thumb_func
 119              		.type	main, %function
 120              	main:
 121              	.LFB63:
   7:main.c        ****     CyGlobalIntEnable; /* Enable global interrupts. */
 122              		.loc 1 7 0
 123              		.cfi_startproc
 124              		@ Volatile: function does not return.
 125              		@ args = 0, pretend = 0, frame = 0
 126              		@ frame_needed = 0, uses_anonymous_args = 0
 127 0000 08B5     		push	{r3, lr}
 128              		.cfi_def_cfa_offset 8
 129              		.cfi_offset 3, -8
 130              		.cfi_offset 14, -4
   8:main.c        **** 
 131              		.loc 1 8 0
 132              		.syntax unified
 133              	@ 8 "main.c" 1
 134 0002 62B6     		CPSIE   i
 135              	@ 0 "" 2
  12:main.c        ****     isr_StartEx(isr_Handler);
 136              		.loc 1 12 0
 137              		.thumb
 138              		.syntax unified
 139 0004 FFF7FEFF 		bl	UART_Start
 140              	.LVL13:
  13:main.c        ****     //UART_EnableRxInt();
 141              		.loc 1 13 0
 142 0008 0148     		ldr	r0, .L11
 143 000a FFF7FEFF 		bl	isr_StartEx
 144              	.LVL14:
 145              	.L9:
 146 000e FEE7     		b	.L9
 147              	.L12:
 148              		.align	2
 149              	.L11:
 150 0010 00000000 		.word	isr_Handler
 151              		.cfi_endproc
 152              	.LFE63:
 153              		.size	main, .-main
 154              		.comm	buffer,1,1
 155              		.section	.rodata.str1.4,"aMS",%progbits,1
 156              		.align	2
ARM GAS  C:\Users\swaga\AppData\Local\Temp\cc8Grb8t.s 			page 5


 157              	.LC0:
 158 0000 4C454420 		.ascii	"LED RED ON!!!\012\000"
 158      52454420 
 158      4F4E2121 
 158      210A00
 159 000f 00       		.space	1
 160              	.LC1:
 161 0010 4C454420 		.ascii	"LED GREEN ON!!!\012\000"
 161      47524545 
 161      4E204F4E 
 161      2121210A 
 161      00
 162 0021 000000   		.space	3
 163              	.LC2:
 164 0024 4C454420 		.ascii	"LED BLUE ON!!!\012\000"
 164      424C5545 
 164      204F4E21 
 164      21210A00 
 165              		.text
 166              	.Letext0:
 167              		.file 2 "c:\\program files (x86)\\cypress\\psoc creator\\4.2\\psoc creator\\import\\gnu\\arm\\5.4.
 168              		.file 3 "c:\\program files (x86)\\cypress\\psoc creator\\4.2\\psoc creator\\import\\gnu\\arm\\5.4.
 169              		.file 4 "Generated_Source\\PSoC5/core_cm3.h"
 170              		.file 5 "Generated_Source\\PSoC5/UART.h"
 171              		.file 6 "Generated_Source\\PSoC5/led_red.h"
 172              		.file 7 "Generated_Source\\PSoC5/led_green.h"
 173              		.file 8 "Generated_Source\\PSoC5/led_blue.h"
 174              		.file 9 "Generated_Source\\PSoC5/isr.h"