ARM GAS  C:\Users\swaga\AppData\Local\Temp\ccY5PZrz.s 			page 1


   1              		.syntax unified
   2              		.cpu cortex-m3
   3              		.fpu softvfp
   4              		.eabi_attribute 20, 1
   5              		.eabi_attribute 21, 1
   6              		.eabi_attribute 23, 3
   7              		.eabi_attribute 24, 1
   8              		.eabi_attribute 25, 1
   9              		.eabi_attribute 26, 1
  10              		.eabi_attribute 30, 1
  11              		.eabi_attribute 34, 1
  12              		.eabi_attribute 18, 4
  13              		.thumb
  14              		.syntax unified
  15              		.file	"main.c"
  16              		.text
  17              	.Ltext0:
  18              		.cfi_sections	.debug_frame
  19              		.section	.text.main,"ax",%progbits
  20              		.align	2
  21              		.global	main
  22              		.thumb
  23              		.thumb_func
  24              		.type	main, %function
  25              	main:
  26              	.LFB63:
  27              		.file 1 "main.c"
   1:main.c        **** 
   2:main.c        **** #include "project.h"
   3:main.c        **** CY_ISR_PROTO(isr_button_Handler);
   4:main.c        **** uint8 button_state;
   5:main.c        **** int main(void)
   6:main.c        **** {
  28              		.loc 1 6 0
  29              		.cfi_startproc
  30              		@ Volatile: function does not return.
  31              		@ args = 0, pretend = 0, frame = 0
  32              		@ frame_needed = 0, uses_anonymous_args = 0
  33 0000 08B5     		push	{r3, lr}
  34              		.cfi_def_cfa_offset 8
  35              		.cfi_offset 3, -8
  36              		.cfi_offset 14, -4
   7:main.c        ****     CyGlobalIntEnable; /* Enable global interrupts. */
  37              		.loc 1 7 0
  38              		.syntax unified
  39              	@ 7 "main.c" 1
  40 0002 62B6     		CPSIE   i
  41              	@ 0 "" 2
   8:main.c        **** 
   9:main.c        ****    
  10:main.c        ****       //  uint8 led_state;
  11:main.c        ****     UART_Start();
  42              		.loc 1 11 0
  43              		.thumb
  44              		.syntax unified
  45 0004 FFF7FEFF 		bl	UART_Start
  46              	.LVL0:
ARM GAS  C:\Users\swaga\AppData\Local\Temp\ccY5PZrz.s 			page 2


  47              	.L4:
  12:main.c        ****    // isr_button_StartEx(isr_button_Handler);
  13:main.c        ****     for(;;)
  14:main.c        ****     {   
  15:main.c        ****         
  16:main.c        ****         button_state= button_Read();
  48              		.loc 1 16 0
  49 0008 FFF7FEFF 		bl	button_Read
  50              	.LVL1:
  51 000c 0A4B     		ldr	r3, .L6
  52 000e 1870     		strb	r0, [r3]
  17:main.c        ****         if (button_state==0){
  53              		.loc 1 17 0
  54 0010 30B9     		cbnz	r0, .L2
  18:main.c        ****              led_Write(1);
  55              		.loc 1 18 0
  56 0012 0120     		movs	r0, #1
  57 0014 FFF7FEFF 		bl	led_Write
  58              	.LVL2:
  19:main.c        ****              UART_PutString("LED ON!!!\n");
  59              		.loc 1 19 0
  60 0018 0848     		ldr	r0, .L6+4
  61 001a FFF7FEFF 		bl	UART_PutString
  62              	.LVL3:
  63 001e 05E0     		b	.L3
  64              	.L2:
  20:main.c        ****              }
  21:main.c        ****         
  22:main.c        ****         else{
  23:main.c        ****              led_Write(0);
  65              		.loc 1 23 0
  66 0020 0020     		movs	r0, #0
  67 0022 FFF7FEFF 		bl	led_Write
  68              	.LVL4:
  24:main.c        ****              UART_PutString("LED OFF!!!\n");
  69              		.loc 1 24 0
  70 0026 0648     		ldr	r0, .L6+8
  71 0028 FFF7FEFF 		bl	UART_PutString
  72              	.LVL5:
  73              	.L3:
  25:main.c        ****     
  26:main.c        ****            }
  27:main.c        ****         CyDelay(1000);
  74              		.loc 1 27 0
  75 002c 4FF47A70 		mov	r0, #1000
  76 0030 FFF7FEFF 		bl	CyDelay
  77              	.LVL6:
  28:main.c        ****     }
  78              		.loc 1 28 0
  79 0034 E8E7     		b	.L4
  80              	.L7:
  81 0036 00BF     		.align	2
  82              	.L6:
  83 0038 00000000 		.word	button_state
  84 003c 00000000 		.word	.LC0
  85 0040 0C000000 		.word	.LC1
  86              		.cfi_endproc
ARM GAS  C:\Users\swaga\AppData\Local\Temp\ccY5PZrz.s 			page 3


  87              	.LFE63:
  88              		.size	main, .-main
  89              		.section	.text.isr_button_Handler,"ax",%progbits
  90              		.align	2
  91              		.global	isr_button_Handler
  92              		.thumb
  93              		.thumb_func
  94              		.type	isr_button_Handler, %function
  95              	isr_button_Handler:
  96              	.LFB64:
  29:main.c        ****     
  30:main.c        **** }
  31:main.c        ****     CY_ISR(isr_button_Handler)
  32:main.c        ****     {   
  97              		.loc 1 32 0
  98              		.cfi_startproc
  99              		@ args = 0, pretend = 0, frame = 0
 100              		@ frame_needed = 0, uses_anonymous_args = 0
 101 0000 08B5     		push	{r3, lr}
 102              		.cfi_def_cfa_offset 8
 103              		.cfi_offset 3, -8
 104              		.cfi_offset 14, -4
  33:main.c        ****         button_ClearInterrupt();
 105              		.loc 1 33 0
 106 0002 FFF7FEFF 		bl	button_ClearInterrupt
 107              	.LVL7:
  34:main.c        ****         button_state= button_Read();
 108              		.loc 1 34 0
 109 0006 FFF7FEFF 		bl	button_Read
 110              	.LVL8:
 111 000a 0A4B     		ldr	r3, .L12
 112 000c 1870     		strb	r0, [r3]
  35:main.c        ****         if (button_state==0){
 113              		.loc 1 35 0
 114 000e 40B9     		cbnz	r0, .L9
  36:main.c        ****              led_Write(1);
 115              		.loc 1 36 0
 116 0010 0120     		movs	r0, #1
 117 0012 FFF7FEFF 		bl	led_Write
 118              	.LVL9:
  37:main.c        ****              UART_PutString("LED ON!!!\r\n");
 119              		.loc 1 37 0
 120 0016 0848     		ldr	r0, .L12+4
 121 0018 FFF7FEFF 		bl	UART_PutString
 122              	.LVL10:
  38:main.c        ****              UART_ClearTxBuffer();
 123              		.loc 1 38 0
 124 001c FFF7FEFF 		bl	UART_ClearTxBuffer
 125              	.LVL11:
 126 0020 08BD     		pop	{r3, pc}
 127              	.L9:
  39:main.c        ****              //UART_Stop();
  40:main.c        ****             }
  41:main.c        ****        
  42:main.c        ****         else
  43:main.c        ****             {//UART_Start();
  44:main.c        ****              led_Write(0);
ARM GAS  C:\Users\swaga\AppData\Local\Temp\ccY5PZrz.s 			page 4


 128              		.loc 1 44 0
 129 0022 0020     		movs	r0, #0
 130 0024 FFF7FEFF 		bl	led_Write
 131              	.LVL12:
  45:main.c        ****              UART_PutString("LED OFF!!\r\n");
 132              		.loc 1 45 0
 133 0028 0448     		ldr	r0, .L12+8
 134 002a FFF7FEFF 		bl	UART_PutString
 135              	.LVL13:
  46:main.c        ****              UART_ClearTxBuffer();
 136              		.loc 1 46 0
 137 002e FFF7FEFF 		bl	UART_ClearTxBuffer
 138              	.LVL14:
 139 0032 08BD     		pop	{r3, pc}
 140              	.L13:
 141              		.align	2
 142              	.L12:
 143 0034 00000000 		.word	button_state
 144 0038 18000000 		.word	.LC2
 145 003c 24000000 		.word	.LC3
 146              		.cfi_endproc
 147              	.LFE64:
 148              		.size	isr_button_Handler, .-isr_button_Handler
 149              		.comm	button_state,1,1
 150              		.section	.rodata.str1.4,"aMS",%progbits,1
 151              		.align	2
 152              	.LC0:
 153 0000 4C454420 		.ascii	"LED ON!!!\012\000"
 153      4F4E2121 
 153      210A00
 154 000b 00       		.space	1
 155              	.LC1:
 156 000c 4C454420 		.ascii	"LED OFF!!!\012\000"
 156      4F464621 
 156      21210A00 
 157              	.LC2:
 158 0018 4C454420 		.ascii	"LED ON!!!\015\012\000"
 158      4F4E2121 
 158      210D0A00 
 159              	.LC3:
 160 0024 4C454420 		.ascii	"LED OFF!!\015\012\000"
 160      4F464621 
 160      210D0A00 
 161              		.text
 162              	.Letext0:
 163              		.file 2 "c:\\program files (x86)\\cypress\\psoc creator\\4.2\\psoc creator\\import\\gnu\\arm\\5.4.
 164              		.file 3 "c:\\program files (x86)\\cypress\\psoc creator\\4.2\\psoc creator\\import\\gnu\\arm\\5.4.
 165              		.file 4 "Generated_Source\\PSoC5/cytypes.h"
 166              		.file 5 "Generated_Source\\PSoC5/core_cm3.h"
 167              		.file 6 "Generated_Source\\PSoC5/UART.h"
 168              		.file 7 "Generated_Source\\PSoC5/button.h"
 169              		.file 8 "Generated_Source\\PSoC5/led.h"
 170              		.file 9 "Generated_Source\\PSoC5/CyLib.h"