ARM GAS  C:\Users\swaga\AppData\Local\Temp\ccCqnhmD.s 			page 1


   1              		.syntax unified
   2              		.cpu cortex-m3
   3              		.fpu softvfp
   4              		.eabi_attribute 20, 1
   5              		.eabi_attribute 21, 1
   6              		.eabi_attribute 23, 3
   7              		.eabi_attribute 24, 1
   8              		.eabi_attribute 25, 1
   9              		.eabi_attribute 26, 1
  10              		.eabi_attribute 30, 1
  11              		.eabi_attribute 34, 1
  12              		.eabi_attribute 18, 4
  13              		.thumb
  14              		.syntax unified
  15              		.file	"main.c"
  16              		.text
  17              	.Ltext0:
  18              		.cfi_sections	.debug_frame
  19              		.section	.text.ISR_UART_Rx,"ax",%progbits
  20              		.align	2
  21              		.global	ISR_UART_Rx
  22              		.thumb
  23              		.thumb_func
  24              		.type	ISR_UART_Rx, %function
  25              	ISR_UART_Rx:
  26              	.LFB64:
  27              		.file 1 "main.c"
   1:main.c        **** #include "project.h"
   2:main.c        **** #include<stdio.h>
   3:main.c        **** char buffer[5];
   4:main.c        **** uint8_t tx_buffer[256];
   5:main.c        **** uint8_t buffer_index = 0;// software buffer
   6:main.c        **** 
   7:main.c        **** // Interrupt function to be activcated ever time a Byte is received
   8:main.c        **** void ISR_UART_Rx(void){
  28              		.loc 1 8 0
  29              		.cfi_startproc
  30              		@ args = 0, pretend = 0, frame = 0
  31              		@ frame_needed = 0, uses_anonymous_args = 0
  32 0000 10B5     		push	{r4, lr}
  33              		.cfi_def_cfa_offset 8
  34              		.cfi_offset 4, -8
  35              		.cfi_offset 14, -4
   9:main.c        ****     if (buffer_index <= 5){
  36              		.loc 1 9 0
  37 0002 064B     		ldr	r3, .L4
  38 0004 1C78     		ldrb	r4, [r3]	@ zero_extendqisi2
  39 0006 052C     		cmp	r4, #5
  40 0008 07D8     		bhi	.L1
  10:main.c        ****     buffer[buffer_index] = UART_GetByte();
  41              		.loc 1 10 0
  42 000a FFF7FEFF 		bl	UART_GetByte
  43              	.LVL0:
  44 000e 044B     		ldr	r3, .L4+4
  45 0010 1855     		strb	r0, [r3, r4]
  11:main.c        ****     buffer_index++;
  46              		.loc 1 11 0
ARM GAS  C:\Users\swaga\AppData\Local\Temp\ccCqnhmD.s 			page 2


  47 0012 024A     		ldr	r2, .L4
  48 0014 1378     		ldrb	r3, [r2]	@ zero_extendqisi2
  49 0016 0133     		adds	r3, r3, #1
  50 0018 1370     		strb	r3, [r2]
  51              	.L1:
  52 001a 10BD     		pop	{r4, pc}
  53              	.L5:
  54              		.align	2
  55              	.L4:
  56 001c 00000000 		.word	.LANCHOR0
  57 0020 00000000 		.word	buffer
  58              		.cfi_endproc
  59              	.LFE64:
  60              		.size	ISR_UART_Rx, .-ISR_UART_Rx
  61              		.section	.text.triangle_wave,"ax",%progbits
  62              		.align	2
  63              		.global	triangle_wave
  64              		.thumb
  65              		.thumb_func
  66              		.type	triangle_wave, %function
  67              	triangle_wave:
  68              	.LFB65:
  12:main.c        ****     }
  13:main.c        **** }
  14:main.c        **** 
  15:main.c        **** // Triangular wave generator ,load data to tx_buffer
  16:main.c        **** int triangle_wave(){ 
  69              		.loc 1 16 0
  70              		.cfi_startproc
  71              		@ args = 0, pretend = 0, frame = 0
  72              		@ frame_needed = 0, uses_anonymous_args = 0
  73              		@ link register save eliminated.
  74              	.LVL1:
  75              	.LBB2:
  17:main.c        ****       int x = 127;
  18:main.c        ****       for (int i= 0 ; i<=255;i++){
  76              		.loc 1 18 0
  77 0000 0023     		movs	r3, #0
  78              	.LBE2:
  17:main.c        ****       int x = 127;
  79              		.loc 1 17 0
  80 0002 7F22     		movs	r2, #127
  81              	.LBB3:
  82              		.loc 1 18 0
  83 0004 09E0     		b	.L7
  84              	.LVL2:
  85              	.L10:
  19:main.c        ****           if (i <= 128) {
  86              		.loc 1 19 0
  87 0006 802B     		cmp	r3, #128
  88 0008 01DC     		bgt	.L8
  20:main.c        ****            tx_buffer[i] = i;
  89              		.loc 1 20 0
  90 000a 0649     		ldr	r1, .L11
  91 000c CB54     		strb	r3, [r1, r3]
  92              	.L8:
  21:main.c        ****            }
ARM GAS  C:\Users\swaga\AppData\Local\Temp\ccCqnhmD.s 			page 3


  22:main.c        ****           if (i>128){
  93              		.loc 1 22 0
  94 000e 802B     		cmp	r3, #128
  95 0010 02DD     		ble	.L9
  23:main.c        ****            tx_buffer[i] = x;
  96              		.loc 1 23 0
  97 0012 0449     		ldr	r1, .L11
  98 0014 CA54     		strb	r2, [r1, r3]
  24:main.c        ****            x--;
  99              		.loc 1 24 0
 100 0016 013A     		subs	r2, r2, #1
 101              	.LVL3:
 102              	.L9:
  18:main.c        ****           if (i <= 128) {
 103              		.loc 1 18 0 discriminator 2
 104 0018 0133     		adds	r3, r3, #1
 105              	.LVL4:
 106              	.L7:
  18:main.c        ****           if (i <= 128) {
 107              		.loc 1 18 0 is_stmt 0 discriminator 1
 108 001a FF2B     		cmp	r3, #255
 109 001c F3DD     		ble	.L10
 110              	.LBE3:
  25:main.c        ****           }
  26:main.c        ****       }
  27:main.c        ****          
  28:main.c        ****     return 0;
  29:main.c        ****     }
 111              		.loc 1 29 0 is_stmt 1
 112 001e 0020     		movs	r0, #0
 113 0020 7047     		bx	lr
 114              	.L12:
 115 0022 00BF     		.align	2
 116              	.L11:
 117 0024 00000000 		.word	tx_buffer
 118              		.cfi_endproc
 119              	.LFE65:
 120              		.size	triangle_wave, .-triangle_wave
 121              		.section	.text.main,"ax",%progbits
 122              		.align	2
 123              		.global	main
 124              		.thumb
 125              		.thumb_func
 126              		.type	main, %function
 127              	main:
 128              	.LFB66:
  30:main.c        **** 
  31:main.c        **** int main(void)
  32:main.c        **** {
 129              		.loc 1 32 0
 130              		.cfi_startproc
 131              		@ Volatile: function does not return.
 132              		@ args = 0, pretend = 0, frame = 0
 133              		@ frame_needed = 0, uses_anonymous_args = 0
 134 0000 08B5     		push	{r3, lr}
 135              		.cfi_def_cfa_offset 8
 136              		.cfi_offset 3, -8
ARM GAS  C:\Users\swaga\AppData\Local\Temp\ccCqnhmD.s 			page 4


 137              		.cfi_offset 14, -4
  33:main.c        ****     CyGlobalIntEnable; /* Enable global interrupts. */
 138              		.loc 1 33 0
 139              		.syntax unified
 140              	@ 33 "main.c" 1
 141 0002 62B6     		CPSIE   i
 142              	@ 0 "" 2
  34:main.c        **** 
  35:main.c        ****     UART_Start();
 143              		.loc 1 35 0
 144              		.thumb
 145              		.syntax unified
 146 0004 FFF7FEFF 		bl	UART_Start
 147              	.LVL5:
  36:main.c        ****     // Interrupt function to be activcated ever time a Byte is received
  37:main.c        ****     ISR_UART_Rx_StartEx(ISR_UART_Rx);
 148              		.loc 1 37 0
 149 0008 0C48     		ldr	r0, .L17
 150 000a FFF7FEFF 		bl	ISR_UART_Rx_StartEx
 151              	.LVL6:
 152              	.L15:
  38:main.c        ****     for(;;)
  39:main.c        ****        { 
  40:main.c        ****         // transmit the data only when data is received
  41:main.c        ****         if((buffer_index >0)&& (buffer[buffer_index-1] == 's')){
 153              		.loc 1 41 0
 154 000e 0C4B     		ldr	r3, .L17+4
 155 0010 1B78     		ldrb	r3, [r3]	@ zero_extendqisi2
 156 0012 73B1     		cbz	r3, .L14
 157              		.loc 1 41 0 is_stmt 0 discriminator 1
 158 0014 013B     		subs	r3, r3, #1
 159 0016 0B4A     		ldr	r2, .L17+8
 160 0018 D35C     		ldrb	r3, [r2, r3]	@ zero_extendqisi2
 161 001a 732B     		cmp	r3, #115
 162 001c 09D1     		bne	.L14
  42:main.c        ****             triangle_wave();
 163              		.loc 1 42 0 is_stmt 1
 164 001e FFF7FEFF 		bl	triangle_wave
 165              	.LVL7:
  43:main.c        ****             //for(int i = 0;i<=255;i++){ // no for loop needed if we increase the size of the tx bu
  44:main.c        ****             UART_PutArray(tx_buffer,256 * sizeof(uint8_t));//<-----------------------------sending 
 166              		.loc 1 44 0
 167 0022 4FF48071 		mov	r1, #256
 168 0026 0848     		ldr	r0, .L17+12
 169 0028 FFF7FEFF 		bl	UART_PutArray
 170              	.LVL8:
  45:main.c        ****             // }
  46:main.c        ****                 
  47:main.c        ****             buffer_index = 0;
 171              		.loc 1 47 0
 172 002c 0022     		movs	r2, #0
 173 002e 044B     		ldr	r3, .L17+4
 174 0030 1A70     		strb	r2, [r3]
 175              	.L14:
  48:main.c        ****             }
  49:main.c        ****         //optional else block to transmit data after the delay when ever.. 
  50:main.c        ****                                                   // .. the buffer is empty 
ARM GAS  C:\Users\swaga\AppData\Local\Temp\ccCqnhmD.s 			page 5


  51:main.c        ****         else{
  52:main.c        ****                //UART_PutString("No Data \n");
  53:main.c        ****             }
  54:main.c        ****         //some other process the processor can do when idle
  55:main.c        ****         CyDelay(1000);
 176              		.loc 1 55 0
 177 0032 4FF47A70 		mov	r0, #1000
 178 0036 FFF7FEFF 		bl	CyDelay
 179              	.LVL9:
  56:main.c        ****        }
 180              		.loc 1 56 0
 181 003a E8E7     		b	.L15
 182              	.L18:
 183              		.align	2
 184              	.L17:
 185 003c 00000000 		.word	ISR_UART_Rx
 186 0040 00000000 		.word	.LANCHOR0
 187 0044 00000000 		.word	buffer
 188 0048 00000000 		.word	tx_buffer
 189              		.cfi_endproc
 190              	.LFE66:
 191              		.size	main, .-main
 192              		.global	buffer_index
 193              		.comm	tx_buffer,256,4
 194              		.comm	buffer,5,4
 195              		.bss
 196              		.set	.LANCHOR0,. + 0
 197              		.type	buffer_index, %object
 198              		.size	buffer_index, 1
 199              	buffer_index:
 200 0000 00       		.space	1
 201              		.text
 202              	.Letext0:
 203              		.file 2 "c:\\program files (x86)\\cypress\\psoc creator\\4.2\\psoc creator\\import\\gnu\\arm\\5.4.
 204              		.file 3 "c:\\program files (x86)\\cypress\\psoc creator\\4.2\\psoc creator\\import\\gnu\\arm\\5.4.
 205              		.file 4 "Generated_Source\\PSoC5/core_cm3.h"
 206              		.file 5 "Generated_Source\\PSoC5/UART.h"
 207              		.file 6 "Generated_Source\\PSoC5/ISR_UART_Rx.h"
 208              		.file 7 "Generated_Source\\PSoC5/CyLib.h"