ARM GAS  C:\Users\swaga\AppData\Local\Temp\ccTjvmnH.s 			page 1


   1              		.syntax unified
   2              		.cpu cortex-m3
   3              		.fpu softvfp
   4              		.eabi_attribute 20, 1
   5              		.eabi_attribute 21, 1
   6              		.eabi_attribute 23, 3
   7              		.eabi_attribute 24, 1
   8              		.eabi_attribute 25, 1
   9              		.eabi_attribute 26, 1
  10              		.eabi_attribute 30, 1
  11              		.eabi_attribute 34, 1
  12              		.eabi_attribute 18, 4
  13              		.thumb
  14              		.syntax unified
  15              		.file	"main.c"
  16              		.text
  17              	.Ltext0:
  18              		.cfi_sections	.debug_frame
  19              		.global	__aeabi_i2f
  20              		.global	__aeabi_fmul
  21              		.global	__aeabi_fdiv
  22              		.global	__aeabi_fcmpge
  23              		.global	__aeabi_fcmple
  24              		.global	__aeabi_f2iz
  25              		.global	__aeabi_fcmplt
  26              		.global	__aeabi_fcmpgt
  27              		.section	.text.main,"ax",%progbits
  28              		.align	2
  29              		.global	main
  30              		.thumb
  31              		.thumb_func
  32              		.type	main, %function
  33              	main:
  34              	.LFB64:
  35              		.file 1 "main.c"
   1:main.c        **** 
   2:main.c        **** #include "project.h"
   3:main.c        **** #include<stdio.h>
   4:main.c        **** #include<string.h>
   5:main.c        **** 
   6:main.c        **** /*void getMinMaxFromArray(uint8* array, uint16 arrSize, uint8 min, uint8 max)
   7:main.c        **** {
   8:main.c        ****     min=max=array[0];
   9:main.c        ****     for (uint16 i;i<arrSize;i++)
  10:main.c        ****     {
  11:main.c        ****        if(array[i] < min)
  12:main.c        ****         {
  13:main.c        ****             min = array[i];
  14:main.c        ****         }
  15:main.c        ****         
  16:main.c        ****         if(array[i] > max)
  17:main.c        ****         {
  18:main.c        ****             max = array[i];
  19:main.c        ****         }
  20:main.c        ****             
  21:main.c        ****         
  22:main.c        ****     }
ARM GAS  C:\Users\swaga\AppData\Local\Temp\ccTjvmnH.s 			page 2


  23:main.c        **** }*/
  24:main.c        **** 
  25:main.c        **** int main(void)
  26:main.c        **** {
  36              		.loc 1 26 0
  37              		.cfi_startproc
  38              		@ args = 0, pretend = 0, frame = 3000
  39              		@ frame_needed = 0, uses_anonymous_args = 0
  40 0000 2DE9F043 		push	{r4, r5, r6, r7, r8, r9, lr}
  41              		.cfi_def_cfa_offset 28
  42              		.cfi_offset 4, -28
  43              		.cfi_offset 5, -24
  44              		.cfi_offset 6, -20
  45              		.cfi_offset 7, -16
  46              		.cfi_offset 8, -12
  47              		.cfi_offset 9, -8
  48              		.cfi_offset 14, -4
  49 0004 ADF6BC3D 		subw	sp, sp, #3004
  50              		.cfi_def_cfa_offset 3032
  27:main.c        ****     CyGlobalIntEnable; /* Enable global interrupts. */
  51              		.loc 1 27 0
  52              		.syntax unified
  53              	@ 27 "main.c" 1
  54 0008 62B6     		CPSIE   i
  55              	@ 0 "" 2
  28:main.c        ****     ADC_Start();
  56              		.loc 1 28 0
  57              		.thumb
  58              		.syntax unified
  59 000a FFF7FEFF 		bl	ADC_Start
  60              	.LVL0:
  29:main.c        ****     ADC_out_Start();
  61              		.loc 1 29 0
  62 000e FFF7FEFF 		bl	ADC_out_Start
  63              	.LVL1:
  30:main.c        ****     
  31:main.c        ****     ADC_StartConvert();
  64              		.loc 1 31 0
  65 0012 FFF7FEFF 		bl	ADC_StartConvert
  66              	.LVL2:
  32:main.c        ****     ADC_out_StartConvert();
  67              		.loc 1 32 0
  68 0016 FFF7FEFF 		bl	ADC_out_StartConvert
  69              	.LVL3:
  33:main.c        ****    
  34:main.c        ****     PWM_Start();
  70              		.loc 1 34 0
  71 001a FFF7FEFF 		bl	PWM_Start
  72              	.LVL4:
  35:main.c        ****     //uint8 ADC_result;
  36:main.c        ****     uint8 pwm_cmp_val=130;
  37:main.c        ****     uint8 ADC_out_result;
  38:main.c        ****     UART_Start();
  73              		.loc 1 38 0
  74 001e FFF7FEFF 		bl	UART_Start
  75              	.LVL5:
  39:main.c        ****     char storage[1000];
ARM GAS  C:\Users\swaga\AppData\Local\Temp\ccTjvmnH.s 			page 3


  40:main.c        ****     uint8 my_arr[1000];
  41:main.c        ****     uint8 my_newarr[1000];
  42:main.c        ****     uint16 count =0;
  76              		.loc 1 42 0
  77 0022 0024     		movs	r4, #0
  36:main.c        ****     uint8 ADC_out_result;
  78              		.loc 1 36 0
  79 0024 8225     		movs	r5, #130
  80 0026 12E0     		b	.L2
  81              	.LVL6:
  82              	.L3:
  43:main.c        ****     uint16 count2 =0;
  44:main.c        ****     uint16 sum=0;
  45:main.c        ****     float avg=0;
  46:main.c        ****    
  47:main.c        ****     for(;;)
  48:main.c        ****     {  
  49:main.c        ****         //ADC_IsEndConversion(ADC_WAIT_FOR_RESULT);
  50:main.c        ****         //ADC_result=ADC_GetResult8(); 
  51:main.c        ****         
  52:main.c        ****         //ADC_out_IsEndConversion(ADC_out_WAIT_FOR_RESULT);
  53:main.c        ****         //ADC_out_result=ADC_out_GetResult8(); 
  54:main.c        ****         //PWM_WriteCompare(130);
  55:main.c        ****         //sprintf(storage, "%d\n", ADC_out_result);
  56:main.c        ****         //UART_PutString(storage);
  57:main.c        ****         //CyDelay(10);
  58:main.c        ****       while (count <=999)
  59:main.c        ****          {  ADC_out_IsEndConversion(ADC_out_WAIT_FOR_RESULT);
  83              		.loc 1 59 0
  84 0028 0020     		movs	r0, #0
  85 002a FFF7FEFF 		bl	ADC_out_IsEndConversion
  86              	.LVL7:
  60:main.c        ****             ADC_out_result=ADC_out_GetResult8();
  87              		.loc 1 60 0
  88 002e FFF7FEFF 		bl	ADC_out_GetResult8
  89              	.LVL8:
  90 0032 C6B2     		uxtb	r6, r0
  91              	.LVL9:
  61:main.c        ****             PWM_WritePeriod(210);
  92              		.loc 1 61 0
  93 0034 D220     		movs	r0, #210
  94 0036 FFF7FEFF 		bl	PWM_WritePeriod
  95              	.LVL10:
  62:main.c        ****             PWM_WriteCompare(pwm_cmp_val);
  96              		.loc 1 62 0
  97 003a 2846     		mov	r0, r5
  98 003c FFF7FEFF 		bl	PWM_WriteCompare
  99              	.LVL11:
  63:main.c        ****             my_arr[count]=ADC_out_result;
 100              		.loc 1 63 0
 101 0040 FAAB     		add	r3, sp, #1000
 102 0042 1E55     		strb	r6, [r3, r4]
  64:main.c        ****             count++;
 103              		.loc 1 64 0
 104 0044 0134     		adds	r4, r4, #1
 105              	.LVL12:
 106 0046 A4B2     		uxth	r4, r4
ARM GAS  C:\Users\swaga\AppData\Local\Temp\ccTjvmnH.s 			page 4


 107              	.LVL13:
  65:main.c        ****             CyDelay(1);
 108              		.loc 1 65 0
 109 0048 0120     		movs	r0, #1
 110 004a FFF7FEFF 		bl	CyDelay
 111              	.LVL14:
 112              	.L2:
  58:main.c        ****          {  ADC_out_IsEndConversion(ADC_out_WAIT_FOR_RESULT);
 113              		.loc 1 58 0
 114 004e B4F57A7F 		cmp	r4, #1000
 115 0052 E9D3     		bcc	.L3
  66:main.c        ****          }
  67:main.c        ****       /* if (count == 1000)
  68:main.c        ****         { for(uint16 i=0 ;i<=999;i++)
  69:main.c        ****          {
  70:main.c        ****           sprintf(storage, "%d\n", my_arr[i]);
  71:main.c        ****           UART_PutString(storage);
  72:main.c        ****           CyDelay(10);
  73:main.c        ****          }}*/
  74:main.c        ****        if (count == 1000)
 116              		.loc 1 74 0
 117 0054 FBD1     		bne	.L2
 118 0056 A7E0     		b	.L25
 119              	.LVL15:
 120              	.L24:
 121              	.LBB2:
 122              	.LBB3:
  75:main.c        ****         {
  76:main.c        ****         for(uint16 i=50 ;i<=999;i++)
  77:main.c        ****           { 
  78:main.c        ****             //uint8 my_arr[1000];
  79:main.c        ****             uint8  min;
  80:main.c        ****             uint8 max;
  81:main.c        ****             min=max=my_arr[50];
 123              		.loc 1 81 0
 124 0058 9DF81A14 		ldrb	r1, [sp, #1050]	@ zero_extendqisi2
 125              	.LVL16:
 126 005c 0846     		mov	r0, r1
 127              	.LBB4:
  82:main.c        ****             for (uint16 k=50;k<970;k++)
 128              		.loc 1 82 0
 129 005e 3223     		movs	r3, #50
 130 0060 0AE0     		b	.L6
 131              	.LVL17:
 132              	.L9:
  83:main.c        ****              {
  84:main.c        ****                  if(my_arr[k] < min)
 133              		.loc 1 84 0
 134 0062 FAAA     		add	r2, sp, #1000
 135 0064 D25C     		ldrb	r2, [r2, r3]	@ zero_extendqisi2
 136 0066 9142     		cmp	r1, r2
 137 0068 01D9     		bls	.L7
  85:main.c        ****                  { if (min != 0)
 138              		.loc 1 85 0
 139 006a 01B1     		cbz	r1, .L7
  86:main.c        ****                       min = my_arr[k];
 140              		.loc 1 86 0
ARM GAS  C:\Users\swaga\AppData\Local\Temp\ccTjvmnH.s 			page 5


 141 006c 1146     		mov	r1, r2
 142              	.LVL18:
 143              	.L7:
  87:main.c        ****                  }
  88:main.c        ****         
  89:main.c        ****                  if(my_arr[k] > max)
 144              		.loc 1 89 0
 145 006e 9042     		cmp	r0, r2
 146 0070 00D2     		bcs	.L8
  90:main.c        ****                  {
  91:main.c        ****                       max = my_arr[k];
 147              		.loc 1 91 0
 148 0072 1046     		mov	r0, r2
 149              	.LVL19:
 150              	.L8:
  82:main.c        ****              {
 151              		.loc 1 82 0 discriminator 2
 152 0074 0133     		adds	r3, r3, #1
 153              	.LVL20:
 154 0076 9BB2     		uxth	r3, r3
 155              	.LVL21:
 156              	.L6:
  82:main.c        ****              {
 157              		.loc 1 82 0 is_stmt 0 discriminator 1
 158 0078 40F2C932 		movw	r2, #969
 159 007c 9342     		cmp	r3, r2
 160 007e F0D9     		bls	.L9
 161              	.LBE4:
  92:main.c        ****                  }
  93:main.c        ****             }
  94:main.c        ****                /* sprintf(storage, "%d\n",min);
  95:main.c        ****                 UART_PutString(storage); 
  96:main.c        ****                 CyDelay(100);
  97:main.c        ****                 for(;;);*/
  98:main.c        ****             
  99:main.c        ****             if ((my_arr[i] >= min) && (my_arr[i] <=min+3)) 
 162              		.loc 1 99 0 is_stmt 1
 163 0080 FAAB     		add	r3, sp, #1000
 164              	.LVL22:
 165 0082 9B5D     		ldrb	r3, [r3, r6]	@ zero_extendqisi2
 166 0084 9942     		cmp	r1, r3
 167 0086 00F28C80 		bhi	.L10
 168              		.loc 1 99 0 is_stmt 0 discriminator 1
 169 008a 0331     		adds	r1, r1, #3
 170              	.LVL23:
 171 008c 8B42     		cmp	r3, r1
 172 008e 00F38880 		bgt	.L10
 100:main.c        ****              {
 101:main.c        ****                my_newarr[count2]=my_arr[i];
 173              		.loc 1 101 0 is_stmt 1
 174 0092 8DF80030 		strb	r3, [sp]
 175              	.LVL24:
 102:main.c        ****                count2++;
 103:main.c        ****                i++;
 176              		.loc 1 103 0
 177 0096 731C     		adds	r3, r6, #1
 178 0098 9BB2     		uxth	r3, r3
ARM GAS  C:\Users\swaga\AppData\Local\Temp\ccTjvmnH.s 			page 6


 179              	.LVL25:
 102:main.c        ****                count2++;
 180              		.loc 1 102 0
 181 009a 0127     		movs	r7, #1
 104:main.c        ****               while (my_arr[i]>= my_newarr[count2-1])
 182              		.loc 1 104 0
 183 009c 05E0     		b	.L11
 184              	.LVL26:
 185              	.L12:
 105:main.c        ****                 { my_newarr[count2]=my_arr[i];
 186              		.loc 1 105 0
 187 009e 0DF80710 		strb	r1, [sp, r7]
 106:main.c        ****                   count2++;
 188              		.loc 1 106 0
 189 00a2 0137     		adds	r7, r7, #1
 190              	.LVL27:
 191 00a4 BFB2     		uxth	r7, r7
 192              	.LVL28:
 107:main.c        ****                   i++;
 193              		.loc 1 107 0
 194 00a6 0133     		adds	r3, r3, #1
 195              	.LVL29:
 196 00a8 9BB2     		uxth	r3, r3
 197              	.LVL30:
 198              	.L11:
 104:main.c        ****                 { my_newarr[count2]=my_arr[i];
 199              		.loc 1 104 0
 200 00aa FAAA     		add	r2, sp, #1000
 201 00ac D15C     		ldrb	r1, [r2, r3]	@ zero_extendqisi2
 202 00ae 7A1E     		subs	r2, r7, #1
 203 00b0 1DF80220 		ldrb	r2, [sp, r2]	@ zero_extendqisi2
 204 00b4 9142     		cmp	r1, r2
 205 00b6 F2D2     		bcs	.L12
 206 00b8 05E0     		b	.L13
 207              	.L14:
 108:main.c        ****                 }
 109:main.c        ****               while (my_arr[i]<= my_newarr[count2-1])                                    
 110:main.c        ****                 {
 111:main.c        ****                   my_newarr[count2]=my_arr[i];
 208              		.loc 1 111 0
 209 00ba 0DF80720 		strb	r2, [sp, r7]
 112:main.c        ****                   count2++;
 210              		.loc 1 112 0
 211 00be 0137     		adds	r7, r7, #1
 212              	.LVL31:
 213 00c0 BFB2     		uxth	r7, r7
 214              	.LVL32:
 113:main.c        ****                   i++;
 215              		.loc 1 113 0
 216 00c2 0133     		adds	r3, r3, #1
 217              	.LVL33:
 218 00c4 9BB2     		uxth	r3, r3
 219              	.LVL34:
 220              	.L13:
 109:main.c        ****                 {
 221              		.loc 1 109 0
 222 00c6 FAAA     		add	r2, sp, #1000
ARM GAS  C:\Users\swaga\AppData\Local\Temp\ccTjvmnH.s 			page 7


 223 00c8 D25C     		ldrb	r2, [r2, r3]	@ zero_extendqisi2
 224 00ca 07F1FF38 		add	r8, r7, #-1
 225 00ce 1DF80810 		ldrb	r1, [sp, r8]	@ zero_extendqisi2
 226 00d2 8A42     		cmp	r2, r1
 227 00d4 F1D9     		bls	.L14
 228 00d6 0026     		movs	r6, #0
 229 00d8 4FF00009 		mov	r9, #0
 230 00dc 3446     		mov	r4, r6
 231              	.LVL35:
 232 00de 12E0     		b	.L15
 233              	.LVL36:
 234              	.L16:
 235              	.LBB5:
 114:main.c        ****                 }
 115:main.c        ****                for(uint j=0 ; j<=count2-1 ; j++)
 116:main.c        ****                     { 
 117:main.c        ****                       sum+=my_newarr[j];
 236              		.loc 1 117 0 discriminator 3
 237 00e0 1DF80630 		ldrb	r3, [sp, r6]	@ zero_extendqisi2
 238 00e4 1C44     		add	r4, r4, r3
 239              	.LVL37:
 240 00e6 A4B2     		uxth	r4, r4
 241              	.LVL38:
 118:main.c        ****                     
 119:main.c        ****                      avg=(sum/count2);
 242              		.loc 1 119 0 discriminator 3
 243 00e8 B4FBF7F0 		udiv	r0, r4, r7
 244 00ec FFF7FEFF 		bl	__aeabi_i2f
 245              	.LVL39:
 120:main.c        ****                      avg=(avg*5*1000)/255;
 246              		.loc 1 120 0 discriminator 3
 247 00f0 3049     		ldr	r1, .L33
 248 00f2 FFF7FEFF 		bl	__aeabi_fmul
 249              	.LVL40:
 250 00f6 3049     		ldr	r1, .L33+4
 251 00f8 FFF7FEFF 		bl	__aeabi_fmul
 252              	.LVL41:
 253 00fc 2F49     		ldr	r1, .L33+8
 254 00fe FFF7FEFF 		bl	__aeabi_fdiv
 255              	.LVL42:
 256 0102 8146     		mov	r9, r0
 257              	.LVL43:
 115:main.c        ****                     { 
 258              		.loc 1 115 0 discriminator 3
 259 0104 0136     		adds	r6, r6, #1
 260              	.LVL44:
 261              	.L15:
 115:main.c        ****                     { 
 262              		.loc 1 115 0 is_stmt 0 discriminator 1
 263 0106 4645     		cmp	r6, r8
 264 0108 EAD9     		bls	.L16
 265              	.LVL45:
 266              	.LBE5:
 121:main.c        ****                      
 122:main.c        ****                       //avg=(int)avg;
 123:main.c        ****                     }
 124:main.c        ****                      //sprintf(storage, "%d mV\n",(int)avg);
ARM GAS  C:\Users\swaga\AppData\Local\Temp\ccTjvmnH.s 			page 8


 125:main.c        ****                     // UART_PutString(storage); 
 126:main.c        ****                     // CyDelay(1);
 127:main.c        ****                      count=0;
 128:main.c        ****                      count2=0;
 129:main.c        ****                      sum=0;
 130:main.c        ****                     // control loop 
 131:main.c        ****                     if((avg>=2700)&&(avg<=2900))
 267              		.loc 1 131 0 is_stmt 1
 268 010a 2D49     		ldr	r1, .L33+12
 269 010c 4846     		mov	r0, r9
 270 010e FFF7FEFF 		bl	__aeabi_fcmpge
 271              	.LVL46:
 272 0112 88B1     		cbz	r0, .L17
 273              		.loc 1 131 0 is_stmt 0 discriminator 1
 274 0114 2B49     		ldr	r1, .L33+16
 275 0116 4846     		mov	r0, r9
 276 0118 FFF7FEFF 		bl	__aeabi_fcmple
 277              	.LVL47:
 278 011c 60B1     		cbz	r0, .L17
 132:main.c        ****                     { sprintf(storage, "=%d\n",(int)avg);
 279              		.loc 1 132 0 is_stmt 1
 280 011e 4846     		mov	r0, r9
 281 0120 FFF7FEFF 		bl	__aeabi_f2iz
 282              	.LVL48:
 283 0124 0246     		mov	r2, r0
 284 0126 2849     		ldr	r1, .L33+20
 285 0128 0DF5FA60 		add	r0, sp, #2000
 286 012c FFF7FEFF 		bl	sprintf
 287              	.LVL49:
 133:main.c        ****                       UART_PutString(storage); 
 288              		.loc 1 133 0
 289 0130 0DF5FA60 		add	r0, sp, #2000
 290 0134 FFF7FEFF 		bl	UART_PutString
 291              	.LVL50:
 292              	.L17:
 134:main.c        ****       
 135:main.c        ****                      }
 136:main.c        ****                     if((avg<2700))
 293              		.loc 1 136 0
 294 0138 2149     		ldr	r1, .L33+12
 295 013a 4846     		mov	r0, r9
 296 013c FFF7FEFF 		bl	__aeabi_fcmplt
 297              	.LVL51:
 298 0140 90B1     		cbz	r0, .L20
 137:main.c        ****                     { PWM_WriteCompare(pwm_cmp_val++);
 299              		.loc 1 137 0
 300 0142 6C1C     		adds	r4, r5, #1
 301 0144 E4B2     		uxtb	r4, r4
 302              	.LVL52:
 303 0146 2846     		mov	r0, r5
 304 0148 FFF7FEFF 		bl	PWM_WriteCompare
 305              	.LVL53:
 138:main.c        ****                       sprintf(storage, "+%d\n",(int)avg);
 306              		.loc 1 138 0
 307 014c 4846     		mov	r0, r9
 308 014e FFF7FEFF 		bl	__aeabi_f2iz
 309              	.LVL54:
ARM GAS  C:\Users\swaga\AppData\Local\Temp\ccTjvmnH.s 			page 9


 310 0152 0246     		mov	r2, r0
 311 0154 1D49     		ldr	r1, .L33+24
 312 0156 0DF5FA60 		add	r0, sp, #2000
 313 015a FFF7FEFF 		bl	sprintf
 314              	.LVL55:
 139:main.c        ****                       UART_PutString(storage); 
 315              		.loc 1 139 0
 316 015e 0DF5FA60 		add	r0, sp, #2000
 317 0162 FFF7FEFF 		bl	UART_PutString
 318              	.LVL56:
 137:main.c        ****                     { PWM_WriteCompare(pwm_cmp_val++);
 319              		.loc 1 137 0
 320 0166 2546     		mov	r5, r4
 321              	.LVL57:
 322              	.L20:
 140:main.c        ****                     
 141:main.c        ****                       }
 142:main.c        ****                     if ((avg>2900))
 323              		.loc 1 142 0
 324 0168 1649     		ldr	r1, .L33+16
 325 016a 4846     		mov	r0, r9
 326 016c FFF7FEFF 		bl	__aeabi_fcmpgt
 327              	.LVL58:
 328 0170 90B1     		cbz	r0, .L22
 143:main.c        ****                     { PWM_WriteCompare(pwm_cmp_val--);
 329              		.loc 1 143 0
 330 0172 6C1E     		subs	r4, r5, #1
 331 0174 E4B2     		uxtb	r4, r4
 332              	.LVL59:
 333 0176 2846     		mov	r0, r5
 334 0178 FFF7FEFF 		bl	PWM_WriteCompare
 335              	.LVL60:
 144:main.c        ****                       sprintf(storage, "-%d\n",(int)avg);
 336              		.loc 1 144 0
 337 017c 4846     		mov	r0, r9
 338 017e FFF7FEFF 		bl	__aeabi_f2iz
 339              	.LVL61:
 340 0182 0246     		mov	r2, r0
 341 0184 1249     		ldr	r1, .L33+28
 342 0186 0DF5FA60 		add	r0, sp, #2000
 343 018a FFF7FEFF 		bl	sprintf
 344              	.LVL62:
 145:main.c        ****                       UART_PutString(storage); 
 345              		.loc 1 145 0
 346 018e 0DF5FA60 		add	r0, sp, #2000
 347 0192 FFF7FEFF 		bl	UART_PutString
 348              	.LVL63:
 143:main.c        ****                     { PWM_WriteCompare(pwm_cmp_val--);
 349              		.loc 1 143 0
 350 0196 2546     		mov	r5, r4
 351              	.LVL64:
 352              	.L22:
 146:main.c        ****                       
 147:main.c        ****                     }
 148:main.c        ****                     
 149:main.c        ****                     avg=0;
 150:main.c        ****                     CyDelay(10);
ARM GAS  C:\Users\swaga\AppData\Local\Temp\ccTjvmnH.s 			page 10


 353              		.loc 1 150 0
 354 0198 0A20     		movs	r0, #10
 355 019a FFF7FEFF 		bl	CyDelay
 356              	.LVL65:
 127:main.c        ****                      count2=0;
 357              		.loc 1 127 0
 358 019e 0024     		movs	r4, #0
 151:main.c        ****                       break;
 359              		.loc 1 151 0
 360 01a0 55E7     		b	.L2
 361              	.LVL66:
 362              	.L10:
 363              	.LBE3:
  76:main.c        ****           { 
 364              		.loc 1 76 0 discriminator 2
 365 01a2 0136     		adds	r6, r6, #1
 366              	.LVL67:
 367 01a4 B6B2     		uxth	r6, r6
 368              	.LVL68:
 369 01a6 00E0     		b	.L4
 370              	.LVL69:
 371              	.L25:
 372              	.LBE2:
 373 01a8 3226     		movs	r6, #50
 374              	.L4:
 375              	.LVL70:
 376              	.LBB6:
  76:main.c        ****           { 
 377              		.loc 1 76 0 is_stmt 0 discriminator 1
 378 01aa B6F57A7F 		cmp	r6, #1000
 379 01ae FFF453AF 		bcc	.L24
 380 01b2 4CE7     		b	.L2
 381              	.L34:
 382              		.align	2
 383              	.L33:
 384 01b4 0000A040 		.word	1084227584
 385 01b8 00007A44 		.word	1148846080
 386 01bc 00007F43 		.word	1132396544
 387 01c0 00C02845 		.word	1160298496
 388 01c4 00403545 		.word	1161117696
 389 01c8 00000000 		.word	.LC0
 390 01cc 08000000 		.word	.LC1
 391 01d0 10000000 		.word	.LC2
 392              	.LBE6:
 393              		.cfi_endproc
 394              	.LFE64:
 395              		.size	main, .-main
 396              		.section	.rodata.str1.4,"aMS",%progbits,1
 397              		.align	2
 398              	.LC0:
 399 0000 3D25640A 		.ascii	"=%d\012\000"
 399      00
 400 0005 000000   		.space	3
 401              	.LC1:
 402 0008 2B25640A 		.ascii	"+%d\012\000"
 402      00
 403 000d 000000   		.space	3
ARM GAS  C:\Users\swaga\AppData\Local\Temp\ccTjvmnH.s 			page 11


 404              	.LC2:
 405 0010 2D25640A 		.ascii	"-%d\012\000"
 405      00
 406              		.text
 407              	.Letext0:
 408              		.file 2 "c:\\program files (x86)\\cypress\\psoc creator\\4.2\\psoc creator\\import\\gnu\\arm\\5.4.
 409              		.file 3 "c:\\program files (x86)\\cypress\\psoc creator\\4.2\\psoc creator\\import\\gnu\\arm\\5.4.
 410              		.file 4 "Generated_Source\\PSoC5/cytypes.h"
 411              		.file 5 "c:\\program files (x86)\\cypress\\psoc creator\\4.2\\psoc creator\\import\\gnu\\arm\\5.4.
 412              		.file 6 "c:\\program files (x86)\\cypress\\psoc creator\\4.2\\psoc creator\\import\\gnu\\arm\\5.4.
 413              		.file 7 "Generated_Source\\PSoC5/UART.h"
 414              		.file 8 "Generated_Source\\PSoC5/PWM.h"
 415              		.file 9 "Generated_Source\\PSoC5/CyLib.h"
 416              		.file 10 "Generated_Source\\PSoC5/ADC.h"
 417              		.file 11 "Generated_Source\\PSoC5/ADC_out.h"
 418              		.file 12 "Generated_Source\\PSoC5/core_cm3.h"